(lp0
S''
p1
aS'http://en.wikipedia.org/wiki/Cities_and_metropolitan_areas_of_the_United_States'
p2
aS'http://en.wikipedia.org/wiki/SETIcon'
p3
aS'http://en.wikipedia.org/wiki/Moonlight_towers_in_Austin,_Texas'
p4
aS'http://en.wikipedia.org/wiki/Anime_Milwaukee'
p5
aS'http://en.wikipedia.org/wiki/Mary_garden'
p6
aS'http://en.wikipedia.org/wiki/Ladadika'
p7
aS'http://en.wikipedia.org/wiki/Observation_deck'
p8
aS'http://en.wikipedia.org/wiki/Sacred_Sites_and_Pilgrimage_Routes_in_the_Kii_Mountain_Range'
p9
aS'http://en.wikipedia.org/wiki/Burial_places_of_founders_of_world_religions'
p10
aS'http://en.wikipedia.org/wiki/F%C3%AAte'
p11
aS'http://en.wikipedia.org/wiki/Sajibu_nongma_panba'
p12
aS'http://en.wikipedia.org/wiki/Kankai'
p13
aS'http://en.wikipedia.org/wiki/Federation_of_European_Carnival_Cities'
p14
aS'http://en.wikipedia.org/wiki/Denver_Comic_Con'
p15
aS'http://en.wikipedia.org/wiki/Sk%C3%A4rg%C3%A5rdsfest'
p16
aS'http://en.wikipedia.org/wiki/Pennsylvania_Leadership_Conference'
p17
aS'http://en.wikipedia.org/wiki/Tower_Climbing'
p18
aS'http://en.wikipedia.org/wiki/Additionally_guyed_tower'
p19
aS'http://en.wikipedia.org/wiki/Elevator_test_tower'
p20
aS'http://en.wikipedia.org/wiki/St._Plegmund%27s_well'
p21
aS'http://en.wikipedia.org/wiki/Manavadar'
p22
aS'http://en.wikipedia.org/wiki/Suspension_tower'
p23
aS'http://en.wikipedia.org/wiki/Guard_tower'
p24
aS'http://en.wikipedia.org/wiki/Sullivans_Cove'
p25
aS'http://en.wikipedia.org/wiki/Farkhad_Dam'
p26
aS'http://en.wikipedia.org/wiki/Yaga_Gathering'
p27
aS'http://en.wikipedia.org/wiki/Gate_tower'
p28
aS'http://en.wikipedia.org/wiki/Dayton_Hamvention'
p29
aS'http://en.wikipedia.org/wiki/Matsuricon'
p30
aS'http://en.wikipedia.org/wiki/AnimeNEXT'
p31
aS'http://en.wikipedia.org/wiki/Overlook'
p32
aS'http://en.wikipedia.org/wiki/Saboten_Con'
p33
aS'http://en.wikipedia.org/wiki/Tower_testing_station'
p34
aS'http://en.wikipedia.org/wiki/Bateshwar,_Uttar_Pradesh'
p35
aS'http://en.wikipedia.org/wiki/1919_Emergency_National_Convention'
p36
aS'http://en.wikipedia.org/wiki/Faith_and_Freedom_Coalition'
p37
aS'http://en.wikipedia.org/wiki/Holy_Basin'
p38
aS'http://en.wikipedia.org/wiki/Groups_of_Traditional_Buildings'
p39
aS'http://en.wikipedia.org/wiki/Ayyavazhi_holy_sites'
p40
aS'http://en.wikipedia.org/wiki/Sliver_building'
p41
aS'http://en.wikipedia.org/wiki/Medieval_Town_of_Toru%C5%84'
p42
aS'http://en.wikipedia.org/wiki/Kirkwood_Estate,_East_Ayrshire'
p43
aS'http://en.wikipedia.org/wiki/MechaCon'
p44
aS'http://en.wikipedia.org/wiki/Kumoricon'
p45
aS'http://en.wikipedia.org/wiki/Trollkyrka'
p46
aS'http://en.wikipedia.org/wiki/3803_KM'
p47
aS'http://en.wikipedia.org/wiki/Votive_site'
p48
aS'http://en.wikipedia.org/wiki/Kawaii_Kon'
p49
aS'http://en.wikipedia.org/wiki/Partially_guyed_tower'
p50
aS'http://en.wikipedia.org/wiki/Bell_tower'
p51
aS'http://en.wikipedia.org/wiki/Lake_Guatavita'
p52
aS'http://en.wikipedia.org/wiki/Eurobest_European_Advertising_Festival'
p53
aS'http://en.wikipedia.org/wiki/Shinboku-con'
p54
aS'http://en.wikipedia.org/wiki/National_UFO_Conference'
p55
aS'http://en.wikipedia.org/wiki/Skepticon'
p56
aS'http://en.wikipedia.org/wiki/Holy_well'
p57
aS'http://en.wikipedia.org/wiki/Old_City_of_Zamo%C5%9B%C4%87'
p58
aS'http://en.wikipedia.org/wiki/Lantern_tower'
p59
aS'http://en.wikipedia.org/wiki/Conference_on_Student_Government_Associations'
p60
aS'http://en.wikipedia.org/wiki/NashiCon'
p61
aS'http://en.wikipedia.org/wiki/Yaboyabo'
p62
aS'http://en.wikipedia.org/wiki/BlogHer'
p63
aS'http://en.wikipedia.org/wiki/Conservative_Political_Action_Conference'
p64
aS'http://en.wikipedia.org/wiki/EvilleCon'
p65
aS'http://en.wikipedia.org/wiki/Oak_of_Mamre'
p66
aS'http://en.wikipedia.org/wiki/No_Brand_Con'
p67
aS'http://en.wikipedia.org/wiki/Largest_cities_in_the_western_United_States'
p68
aS'http://en.wikipedia.org/wiki/Ashthimki_festival'
p69
aS'http://en.wikipedia.org/wiki/Mooring_mast'
p70
aS'http://en.wikipedia.org/wiki/Tattaguine'
p71
aS'http://en.wikipedia.org/wiki/Wildcat_Comic_Con'
p72
aS'http://en.wikipedia.org/wiki/ColossalCon'
p73
aS'http://en.wikipedia.org/wiki/Transeuropa_Festival'
p74
aS'http://en.wikipedia.org/wiki/Anime_Salt_Lake'
p75
aS'http://en.wikipedia.org/wiki/Chicabal_Lake'
p76
aS'http://en.wikipedia.org/wiki/Warangal'
p77
aS'http://en.wikipedia.org/wiki/Starmus_Festival'
p78
aS'http://en.wikipedia.org/wiki/Fire_lookout_tower'
p79
aS'http://en.wikipedia.org/wiki/International_Festivals_of_the_Sea'
p80
aS'http://en.wikipedia.org/wiki/Anime_Mid-Atlantic'
p81
aS'http://en.wikipedia.org/wiki/Tourist_attraction'
p82
aS'http://en.wikipedia.org/wiki/No_man%27s_land'
p83
aS'http://en.wikipedia.org/wiki/Spire'
p84
aS'http://en.wikipedia.org/wiki/Drop_tube'
p85
aS'http://en.wikipedia.org/wiki/Ancient_Chernihiv'
p86
aS'http://en.wikipedia.org/wiki/SoDak_Con'
p87
aS'http://en.wikipedia.org/wiki/Garden_festival'
p88
aS'http://en.wikipedia.org/wiki/Upper_Town_(Thessaloniki)'
p89
aS'http://en.wikipedia.org/wiki/Death_Equinox'
p90
aS'http://en.wikipedia.org/wiki/Mount_Athos'
p91
aS'http://en.wikipedia.org/wiki/Tukar'
p92
aS'http://en.wikipedia.org/wiki/Dojang_(temple)'
p93
aS'http://en.wikipedia.org/wiki/Sacred_grove'
p94
aS'http://en.wikipedia.org/wiki/Ohayocon'
p95
aS'http://en.wikipedia.org/wiki/Flak_tower'
p96
aS'http://en.wikipedia.org/wiki/Nan_Desu_Kan'
p97
aS'http://en.wikipedia.org/wiki/Street_party'
p98
aS'http://en.wikipedia.org/wiki/Drop_tower'
p99
aS'http://en.wikipedia.org/wiki/Hyderabad'
p100
aS'http://en.wikipedia.org/wiki/Right_to_exist'
p101
aS'http://en.wikipedia.org/wiki/Tekko_(convention)'
p102
aS'http://en.wikipedia.org/wiki/FAN:dom_Con'
p103
aS'http://en.wikipedia.org/wiki/Khalwat_al-Bayada'
p104
aS'http://en.wikipedia.org/wiki/Vakaippathi'
p105
aS'http://en.wikipedia.org/wiki/MangaNEXT'
p106
aS'http://en.wikipedia.org/wiki/Anime_NebrasKon'
p107
aS'http://en.wikipedia.org/wiki/Katsucon'
p108
aS'http://en.wikipedia.org/wiki/Meherabad'
p109
aS'http://en.wikipedia.org/wiki/Genoese_towers_in_Corsica'
p110
aS'http://en.wikipedia.org/wiki/Cooling_tower'
p111
aS'http://en.wikipedia.org/wiki/Tower_mill'
p112
aS'http://en.wikipedia.org/wiki/Place_of_worship'
p113
aS'http://en.wikipedia.org/wiki/Festival_of_Opinion_Culture'
p114
aS'http://en.wikipedia.org/wiki/Anime_Midwest'
p115
aS'http://en.wikipedia.org/wiki/Anime_Weekend_Atlanta'
p116
aS'http://en.wikipedia.org/wiki/Medina_quarter'
p117
aS'http://en.wikipedia.org/wiki/Nh%C3%A0_th%E1%BB%9D_h%E1%BB%8D'
p118
aS'http://en.wikipedia.org/wiki/ConnectiCon'
p119
aS'http://en.wikipedia.org/wiki/Pangea_Day'
p120
aS'http://en.wikipedia.org/wiki/BloggerCon'
p121
aS'http://en.wikipedia.org/wiki/Festival'
p122
aS'http://en.wikipedia.org/wiki/Trinity_Royal_Heritage_Conservation_Area'
p123
aS'http://en.wikipedia.org/wiki/Fire_control_tower'
p124
aS'http://en.wikipedia.org/wiki/Pagoda'
p125
aS'http://en.wikipedia.org/wiki/Netroots_Nation'
p126
aS'http://en.wikipedia.org/wiki/Water_tower'
p127
aS'http://en.wikipedia.org/wiki/SugoiCon'
p128
aS'http://en.wikipedia.org/wiki/OMGcon'
p129
aS'http://en.wikipedia.org/wiki/Crooked_spire'
p130
aS'http://en.wikipedia.org/wiki/St_Vincent_Place'
p131
aS'http://en.wikipedia.org/wiki/Glastonbury_Tor'
p132
aS'http://en.wikipedia.org/wiki/Largest_cities_in_the_United_States_by_population_by_decade'
p133
aS'http://en.wikipedia.org/wiki/Nebula_Awards_Weekend'
p134
aS'http://en.wikipedia.org/wiki/Ciudad_Colonial_(Santo_Domingo)'
p135
aS'http://en.wikipedia.org/wiki/Territorial_dispute'
p136
aS'http://en.wikipedia.org/wiki/Old_City_(Hyderabad,_India)'
p137
aS'http://en.wikipedia.org/wiki/Warsaw_Old_Town'
p138
aS'http://en.wikipedia.org/wiki/JAFAX'
p139
aS'http://en.wikipedia.org/wiki/EerieCon'
p140
aS'http://en.wikipedia.org/wiki/LeakyCon'
p141
aS'http://en.wikipedia.org/wiki/Lake_Iguaque'
p142
aS'http://en.wikipedia.org/wiki/Al-Araqeeb'
p143
aS'http://en.wikipedia.org/wiki/Kashiyatra'
p144
aS'http://en.wikipedia.org/wiki/Abbott%27s_Get_Together'
p145
aS'http://en.wikipedia.org/wiki/Lake_Bosumtwi'
p146
aS'http://en.wikipedia.org/wiki/Anime_South'
p147
aS'http://en.wikipedia.org/wiki/Old_Town'
p148
aS'http://en.wikipedia.org/wiki/International_Festivals_and_Events_Association'
p149
aS'http://en.wikipedia.org/wiki/Salamanca_Place'
p150
aS'http://en.wikipedia.org/wiki/ROFLCon'
p151
aS'http://en.wikipedia.org/wiki/Cartographic_aggression'
p152
aS'http://en.wikipedia.org/wiki/North_American_Science_Fiction_Convention'
p153
aS'http://en.wikipedia.org/wiki/QC_Anime-zing!'
p154
aS'http://en.wikipedia.org/wiki/Anime_Festival_Orlando'
p155
aS'http://en.wikipedia.org/wiki/Midwest_Magic_Jubilee'
p156
aS'http://en.wikipedia.org/wiki/Honeypot_(tourism)'
p157
aS'http://en.wikipedia.org/wiki/Country_Radio_Broadcasters'
p158
aS'http://en.wikipedia.org/wiki/Sviatohirsk_Lavra'
p159
aS'http://en.wikipedia.org/wiki/Air-raid_shelter'
p160
aS'http://en.wikipedia.org/wiki/Location_(geography)'
p161
aS'http://en.wikipedia.org/wiki/Monastic_cell'
p162
aS'http://en.wikipedia.org/wiki/Tourist_gateway'
p163
aS'http://en.wikipedia.org/wiki/Sogen_Con'
p164
aS'http://en.wikipedia.org/wiki/Dhuni'
p165
aS'http://en.wikipedia.org/wiki/Animazement'
p166
aS'http://en.wikipedia.org/wiki/BrickFest'
p167
aS'http://en.wikipedia.org/wiki/Providence_Anime_Conference'
p168
aS'http://en.wikipedia.org/wiki/Universe'
p169
aS'http://en.wikipedia.org/wiki/Old_Town_(Lviv)'
p170
aS'http://en.wikipedia.org/wiki/Ecclesiastical_capital'
p171
aS'http://en.wikipedia.org/wiki/Old_City_(Jerusalem)'
p172
aS'http://en.wikipedia.org/wiki/Naka-Kon'
p173
aS'http://en.wikipedia.org/wiki/Tower_house'
p174
aS'http://en.wikipedia.org/wiki/Youmacon'
p175
aS'http://en.wikipedia.org/wiki/Bomb_tower'
p176
aS'http://en.wikipedia.org/wiki/Lioncon'
p177
aS'http://en.wikipedia.org/wiki/KotoriCon'
p178
aS'http://en.wikipedia.org/wiki/Maunsell_Forts'
p179
aS'http://en.wikipedia.org/wiki/Holy_Land'
p180
aS'http://en.wikipedia.org/wiki/Wine_festival'
p181
aS'http://en.wikipedia.org/wiki/Historic_district'
p182
aS'http://en.wikipedia.org/wiki/Steps_To_War_(international_relations)'
p183
aS'http://en.wikipedia.org/wiki/Human_settlement'
p184
aS'http://en.wikipedia.org/wiki/Liberty_Political_Action_Conference'
p185
aS'http://en.wikipedia.org/wiki/Parade'
p186
aS'http://en.wikipedia.org/wiki/Qasaba'
p187
aS'http://en.wikipedia.org/wiki/International_UFO_Congress'
p188
aS'http://en.wikipedia.org/wiki/Illuminated_procession'
p189
aS'http://en.wikipedia.org/wiki/Sakura-Con'
p190
aS'http://en.wikipedia.org/wiki/Chapeltoun'
p191
aS'http://en.wikipedia.org/wiki/Holy_places'
p192
aS'http://en.wikipedia.org/wiki/BronyCon'
p193
aS'http://en.wikipedia.org/wiki/Nekocon'
p194
aS'http://en.wikipedia.org/wiki/Free_festival'
p195
aS'http://en.wikipedia.org/wiki/Stare_Miasto'
p196
aS'http://en.wikipedia.org/wiki/Coffee_house_church'
p197
aS'http://en.wikipedia.org/wiki/Outline_of_festivals'
p198
aS'http://en.wikipedia.org/wiki/Kiek_in_de_K%C3%B6k'
p199
aS'http://en.wikipedia.org/wiki/Anime_Banzai'
p200
aS'http://en.wikipedia.org/wiki/Yogyakarta_Art_Festival'
p201
aS'http://en.wikipedia.org/wiki/Lal_Loi'
p202
a.