(lp0
S'http://en.wikipedia.org/wiki/Perla_Haney-Jardine'
p1
aS'http://en.wikipedia.org/wiki/Claudia_McNeil'
p2
aS'http://en.wikipedia.org/wiki/Kyme_(actress)'
p3
aS'http://en.wikipedia.org/wiki/Laura_Cer%C3%B3n'
p4
aS'http://en.wikipedia.org/wiki/Michaela_McManus'
p5
aS'http://en.wikipedia.org/wiki/Jessica_Chastain'
p6
aS'http://en.wikipedia.org/wiki/Anne_Howard_(actress)'
p7
aS'http://en.wikipedia.org/wiki/Bessie_Eyton'
p8
aS'http://en.wikipedia.org/wiki/LuAnn_de_Lesseps'
p9
aS'http://en.wikipedia.org/wiki/Sabrina_Bryan'
p10
aS'http://en.wikipedia.org/wiki/Joan_Allen'
p11
aS'http://en.wikipedia.org/wiki/Martha_Wentworth'
p12
aS'http://en.wikipedia.org/wiki/Michelle_Federer'
p13
aS'http://en.wikipedia.org/wiki/Vikki_Carr'
p14
aS'http://en.wikipedia.org/wiki/Laurie_Bartram'
p15
aS'http://en.wikipedia.org/wiki/Christy_Hartburg'
p16
aS'http://en.wikipedia.org/wiki/Doris_Kenyon'
p17
aS'http://en.wikipedia.org/wiki/Daria_Halprin'
p18
aS'http://en.wikipedia.org/wiki/Lori_Cardille'
p19
aS'http://en.wikipedia.org/wiki/Kate_Williamson'
p20
aS'http://en.wikipedia.org/wiki/Anne_Meara'
p21
aS'http://en.wikipedia.org/wiki/Anne_Meacham'
p22
aS'http://en.wikipedia.org/wiki/Gladys_Brockwell'
p23
aS'http://en.wikipedia.org/wiki/Jane_Isbell'
p24
aS'http://en.wikipedia.org/wiki/Geena_Davis'
p25
aS'http://en.wikipedia.org/wiki/Constance_Forslund'
p26
aS'http://en.wikipedia.org/wiki/Amanda_Detmer'
p27
aS'http://en.wikipedia.org/wiki/Patsy_Ruth_Miller'
p28
aS'http://en.wikipedia.org/wiki/Mia_Tyler'
p29
aS'http://en.wikipedia.org/wiki/Shelley_Fabares'
p30
aS'http://en.wikipedia.org/wiki/Marjorie_Eaton'
p31
aS'http://en.wikipedia.org/wiki/Lisa_Janti'
p32
aS'http://en.wikipedia.org/wiki/Carrie_Brownstein'
p33
aS'http://en.wikipedia.org/wiki/Lana_Wood'
p34
aS'http://en.wikipedia.org/wiki/Yvonne_Hughes'
p35
aS'http://en.wikipedia.org/wiki/Gloria_Winters'
p36
aS'http://en.wikipedia.org/wiki/Blanche_Yurka'
p37
aS'http://en.wikipedia.org/wiki/Maureen_Anderman'
p38
aS'http://en.wikipedia.org/wiki/Lisa_Arch'
p39
aS'http://en.wikipedia.org/wiki/Syr_Law'
p40
aS'http://en.wikipedia.org/wiki/Julianne_Michelle'
p41
aS'http://en.wikipedia.org/wiki/Sharry_Konopski'
p42
aS'http://en.wikipedia.org/wiki/Lauren_Tom'
p43
aS'http://en.wikipedia.org/wiki/Larissa_Drekonja'
p44
aS'http://en.wikipedia.org/wiki/Nicole_Bilderback'
p45
aS'http://en.wikipedia.org/wiki/Jordin_Sparks'
p46
aS'http://en.wikipedia.org/wiki/Parker_Posey'
p47
aS'http://en.wikipedia.org/wiki/Celeste_Holm'
p48
aS'http://en.wikipedia.org/wiki/Boots_Mallory'
p49
aS'http://en.wikipedia.org/wiki/Anne_Baxter'
p50
aS'http://en.wikipedia.org/wiki/Edie_Falco'
p51
aS'http://en.wikipedia.org/wiki/Joan_Juliet_Buck'
p52
aS'http://en.wikipedia.org/wiki/Janine_Turner'
p53
aS'http://en.wikipedia.org/wiki/Eileen_April_Boylan'
p54
aS'http://en.wikipedia.org/wiki/Mia_Wesley'
p55
aS'http://en.wikipedia.org/wiki/Miley_Cyrus'
p56
aS'http://en.wikipedia.org/wiki/Ambyr_Childers'
p57
aS'http://en.wikipedia.org/wiki/Mary_Boland'
p58
aS'http://en.wikipedia.org/wiki/Morgan_Lily'
p59
aS'http://en.wikipedia.org/wiki/Helen_Vinson'
p60
aS'http://en.wikipedia.org/wiki/Lily_Tomlin'
p61
aS'http://en.wikipedia.org/wiki/Jobyna_Howland'
p62
aS'http://en.wikipedia.org/wiki/Maya_Deren'
p63
aS'http://en.wikipedia.org/wiki/Jennifer_Crystal_Foley'
p64
aS'http://en.wikipedia.org/wiki/Diane_Franklin'
p65
aS'http://en.wikipedia.org/wiki/Karen_Morley'
p66
aS'http://en.wikipedia.org/wiki/Ruth_Duccini'
p67
aS'http://en.wikipedia.org/wiki/Tammy_Lynn_Leppert'
p68
aS'http://en.wikipedia.org/wiki/Bonnie_Poe'
p69
aS'http://en.wikipedia.org/wiki/Dorothy_Arnold_(actress)'
p70
aS'http://en.wikipedia.org/wiki/Pam_Dawber'
p71
aS'http://en.wikipedia.org/wiki/Anastasia_Baranova'
p72
aS'http://en.wikipedia.org/wiki/Amy_O%27Neill'
p73
aS'http://en.wikipedia.org/wiki/Judy_Landers'
p74
aS'http://en.wikipedia.org/wiki/Jillian_Clare'
p75
aS'http://en.wikipedia.org/wiki/Kortney_Nash'
p76
aS'http://en.wikipedia.org/wiki/Bobbi_Jordan'
p77
aS'http://en.wikipedia.org/wiki/Viola_Richard'
p78
aS'http://en.wikipedia.org/wiki/Kiami_Davael'
p79
aS'http://en.wikipedia.org/wiki/Rachel_Covey'
p80
aS'http://en.wikipedia.org/wiki/Elizabeth_DeCicco'
p81
aS'http://en.wikipedia.org/wiki/Sarah_Clarke'
p82
aS'http://en.wikipedia.org/wiki/Katerina_Mikailenko'
p83
aS'http://en.wikipedia.org/wiki/Thelma_Houston'
p84
aS'http://en.wikipedia.org/wiki/Emily_Meade'
p85
aS'http://en.wikipedia.org/wiki/Susan_Ward'
p86
aS'http://en.wikipedia.org/wiki/Jane_Kaczmarek'
p87
aS'http://en.wikipedia.org/wiki/Clara_Kimball_Young'
p88
aS'http://en.wikipedia.org/wiki/Geraldine_Chaplin'
p89
aS'http://en.wikipedia.org/wiki/Alice_Playten'
p90
aS'http://en.wikipedia.org/wiki/Sam_Doumit'
p91
aS'http://en.wikipedia.org/wiki/Lillian_West'
p92
aS'http://en.wikipedia.org/wiki/Tia_Carrere'
p93
aS'http://en.wikipedia.org/wiki/Didi_Conn'
p94
aS'http://en.wikipedia.org/wiki/Rosemary_De_Angelis'
p95
aS'http://en.wikipedia.org/wiki/Betsy_Russell'
p96
aS'http://en.wikipedia.org/wiki/Lisa_Bonet'
p97
aS'http://en.wikipedia.org/wiki/Antonia_Rey'
p98
aS'http://en.wikipedia.org/wiki/Anita_Garvin'
p99
aS'http://en.wikipedia.org/wiki/Camryn_Manheim'
p100
aS'http://en.wikipedia.org/wiki/Clara_Blandick'
p101
aS'http://en.wikipedia.org/wiki/Sue_Hamilton_(model_and_actress)'
p102
aS'http://en.wikipedia.org/wiki/Peggy_Miley'
p103
aS'http://en.wikipedia.org/wiki/Rose_Abdoo'
p104
aS'http://en.wikipedia.org/wiki/Jessica_Campbell'
p105
aS'http://en.wikipedia.org/wiki/Lauren_Storm'
p106
aS'http://en.wikipedia.org/wiki/Haviland_Morris'
p107
aS'http://en.wikipedia.org/wiki/Margo_Martindale'
p108
aS'http://en.wikipedia.org/wiki/Beth_Toussaint'
p109
aS'http://en.wikipedia.org/wiki/Jane_Alexander'
p110
aS'http://en.wikipedia.org/wiki/Rebecca_Grant_(American_actress)'
p111
aS'http://en.wikipedia.org/wiki/Ethel_Clayton'
p112
aS'http://en.wikipedia.org/wiki/Paula_Trueman'
p113
aS'http://en.wikipedia.org/wiki/Dianne_Wiest'
p114
aS'http://en.wikipedia.org/wiki/Erica_Gimpel'
p115
aS'http://en.wikipedia.org/wiki/Sonja_Sohn'
p116
aS'http://en.wikipedia.org/wiki/Morgan_Brittany'
p117
aS'http://en.wikipedia.org/wiki/Andrea_Howard'
p118
aS'http://en.wikipedia.org/wiki/Selena'
p119
aS'http://en.wikipedia.org/wiki/Kate_Upton'
p120
aS'http://en.wikipedia.org/wiki/Madolyn_Smith_Osborne'
p121
aS'http://en.wikipedia.org/wiki/Gertrude_Flynn'
p122
aS'http://en.wikipedia.org/wiki/Tamara_Mark'
p123
aS'http://en.wikipedia.org/wiki/Jennifer_Siebel_Newsom'
p124
aS'http://en.wikipedia.org/wiki/Renae_Geerlings'
p125
aS'http://en.wikipedia.org/wiki/Rosanne_Katon'
p126
aS'http://en.wikipedia.org/wiki/Christa_B._Allen'
p127
aS'http://en.wikipedia.org/wiki/Ethel_Ayler'
p128
aS'http://en.wikipedia.org/wiki/Sumi_Haru'
p129
aS'http://en.wikipedia.org/wiki/Melanie_Paxson'
p130
aS'http://en.wikipedia.org/wiki/Ally_Sheedy'
p131
aS'http://en.wikipedia.org/wiki/Aviva_(actress)'
p132
aS'http://en.wikipedia.org/wiki/Debra_Paget'
p133
aS'http://en.wikipedia.org/wiki/Amanda_Brooks'
p134
aS'http://en.wikipedia.org/wiki/Jessica_Hecht'
p135
aS'http://en.wikipedia.org/wiki/Jane_Webb'
p136
aS'http://en.wikipedia.org/wiki/Natalie_Dreyfuss'
p137
aS'http://en.wikipedia.org/wiki/Cynthia_Pepper'
p138
aS'http://en.wikipedia.org/wiki/Marie_Shotwell'
p139
aS'http://en.wikipedia.org/wiki/Barbara_Feldon'
p140
aS'http://en.wikipedia.org/wiki/Tisha_Campbell-Martin'
p141
aS'http://en.wikipedia.org/wiki/Stella_Maeve'
p142
aS'http://en.wikipedia.org/wiki/Margaret_Morris_(actress)'
p143
aS'http://en.wikipedia.org/wiki/Vanessa_Hudgens'
p144
aS'http://en.wikipedia.org/wiki/Natalie_Joy_Johnson'
p145
aS'http://en.wikipedia.org/wiki/Hedy_Lamarr'
p146
aS'http://en.wikipedia.org/wiki/Kerri_Randles'
p147
aS'http://en.wikipedia.org/wiki/Elizabeth_MacRae'
p148
aS'http://en.wikipedia.org/wiki/Mary_Martin'
p149
aS'http://en.wikipedia.org/wiki/Marion_Ross'
p150
aS'http://en.wikipedia.org/wiki/Marlo_Dwyer'
p151
aS'http://en.wikipedia.org/wiki/Tina_Krause'
p152
aS'http://en.wikipedia.org/wiki/Amy_Ferguson'
p153
aS'http://en.wikipedia.org/wiki/Louise_Dresser'
p154
aS'http://en.wikipedia.org/wiki/Lois_Collier'
p155
aS'http://en.wikipedia.org/wiki/Taylor_Cole'
p156
aS'http://en.wikipedia.org/wiki/Grace_Moore'
p157
aS'http://en.wikipedia.org/wiki/Sally_Rand'
p158
aS'http://en.wikipedia.org/wiki/Dee_Barnes'
p159
aS'http://en.wikipedia.org/wiki/Delia_Bogard'
p160
aS'http://en.wikipedia.org/wiki/Mackenzie_Smith'
p161
aS'http://en.wikipedia.org/wiki/Vera-Ellen'
p162
aS'http://en.wikipedia.org/wiki/Lorna_Gray'
p163
aS'http://en.wikipedia.org/wiki/Wendy_Kaplan'
p164
aS'http://en.wikipedia.org/wiki/Suzanna_Love'
p165
aS'http://en.wikipedia.org/wiki/Stephanie_Niznik'
p166
aS'http://en.wikipedia.org/wiki/Sheryl_Lee'
p167
aS'http://en.wikipedia.org/wiki/Linda_Doucett'
p168
aS'http://en.wikipedia.org/wiki/Natasha_Leggero'
p169
aS'http://en.wikipedia.org/wiki/Joan_Dixon'
p170
aS'http://en.wikipedia.org/wiki/Lori_Singer'
p171
aS'http://en.wikipedia.org/wiki/Irene_Ng'
p172
aS'http://en.wikipedia.org/wiki/Katherine_Walsh_(actress)'
p173
aS'http://en.wikipedia.org/wiki/Abigail_Spencer'
p174
aS'http://en.wikipedia.org/wiki/Jane_Hamilton_(actress)'
p175
aS'http://en.wikipedia.org/wiki/Tammy_Lynn_Michaels'
p176
aS'http://en.wikipedia.org/wiki/Barbara_Lawrence'
p177
aS'http://en.wikipedia.org/wiki/Chip_Fields'
p178
aS'http://en.wikipedia.org/wiki/Shanna_Collins'
p179
aS'http://en.wikipedia.org/wiki/Marie_McDonald'
p180
aS'http://en.wikipedia.org/wiki/Emily_Warfield'
p181
aS'http://en.wikipedia.org/wiki/Tanjareen_Martin'
p182
aS'http://en.wikipedia.org/wiki/Leni_Stengel'
p183
aS'http://en.wikipedia.org/wiki/Trazana_Beverley'
p184
aS'http://en.wikipedia.org/wiki/Terry_Farrell_(actress)'
p185
aS'http://en.wikipedia.org/wiki/Kim_Miyori'
p186
aS'http://en.wikipedia.org/wiki/Kirsten_Kemp'
p187
aS'http://en.wikipedia.org/wiki/Barbara_Bedford_(actress)'
p188
aS'http://en.wikipedia.org/wiki/Lauren_Bittner'
p189
aS'http://en.wikipedia.org/wiki/Molly_Picon'
p190
aS'http://en.wikipedia.org/wiki/Ashley_Tisdale'
p191
aS'http://en.wikipedia.org/wiki/Vasiliki_Maliaros'
p192
aS'http://en.wikipedia.org/wiki/Pearl_Eaton'
p193
aS'http://en.wikipedia.org/wiki/Beau_Garrett'
p194
aS'http://en.wikipedia.org/wiki/Meredith_Baxter'
p195
aS'http://en.wikipedia.org/wiki/Bertha_Kalich'
p196
aS'http://en.wikipedia.org/wiki/Sarah_Prikryl'
p197
aS'http://en.wikipedia.org/wiki/Kathryn_Noble'
p198
aS'http://en.wikipedia.org/wiki/Shondrella_Avery'
p199
aS'http://en.wikipedia.org/wiki/Michelle_Monaghan'
p200
aS'http://en.wikipedia.org/wiki/Jewel_(singer)'
p201
aS'http://en.wikipedia.org/wiki/Morena_Baccarin'
p202
aS'http://en.wikipedia.org/wiki/Brittney_Alger'
p203
aS'http://en.wikipedia.org/wiki/Ta-Tanisha'
p204
aS'http://en.wikipedia.org/wiki/Penelope_Windust'
p205
aS'http://en.wikipedia.org/wiki/Agnes_Steele'
p206
aS'http://en.wikipedia.org/wiki/Carole_Mathews'
p207
aS'http://en.wikipedia.org/wiki/Lauren_Hutton'
p208
aS'http://en.wikipedia.org/wiki/Molly_Spotted_Elk'
p209
aS'http://en.wikipedia.org/wiki/Fala_Chen'
p210
aS'http://en.wikipedia.org/wiki/Delta_Burke'
p211
aS'http://en.wikipedia.org/wiki/Kim_Darby'
p212
aS'http://en.wikipedia.org/wiki/Sarah_Burns'
p213
aS'http://en.wikipedia.org/wiki/Victoria_Shaw_(actress)'
p214
aS'http://en.wikipedia.org/wiki/Felicity_Huffman'
p215
aS'http://en.wikipedia.org/wiki/Daffney'
p216
aS'http://en.wikipedia.org/wiki/Joan_Shawlee'
p217
aS'http://en.wikipedia.org/wiki/Sandra_Dickinson'
p218
aS'http://en.wikipedia.org/wiki/Joyce_Nizzari'
p219
aS'http://en.wikipedia.org/wiki/Ruthanna_Hopper'
p220
aS'http://en.wikipedia.org/wiki/Marissa_Jaret_Winokur'
p221
aS'http://en.wikipedia.org/wiki/Julia_Sweeney'
p222
aS'http://en.wikipedia.org/wiki/Spring_Byington'
p223
aS'http://en.wikipedia.org/wiki/Louise_Fazenda'
p224
aS'http://en.wikipedia.org/wiki/Deborah_Tucker'
p225
aS'http://en.wikipedia.org/wiki/Angela_Stevens'
p226
aS'http://en.wikipedia.org/wiki/Alanis_Morissette'
p227
aS'http://en.wikipedia.org/wiki/Barbara_Bain'
p228
aS'http://en.wikipedia.org/wiki/Andrea_Bowen'
p229
aS'http://en.wikipedia.org/wiki/K_Callan'
p230
aS'http://en.wikipedia.org/wiki/Jane_Morgan'
p231
aS'http://en.wikipedia.org/wiki/Anna_Chlumsky'
p232
aS'http://en.wikipedia.org/wiki/Jillian_Reynolds'
p233
aS'http://en.wikipedia.org/wiki/Julia_Roberts'
p234
aS'http://en.wikipedia.org/wiki/Fritzi_Brunette'
p235
aS'http://en.wikipedia.org/wiki/Takayo_Fischer'
p236
aS'http://en.wikipedia.org/wiki/Pamela_Anderson'
p237
aS'http://en.wikipedia.org/wiki/Erin_Lear'
p238
aS'http://en.wikipedia.org/wiki/Hallie_Foote'
p239
aS'http://en.wikipedia.org/wiki/Yvonne_Craig'
p240
aS'http://en.wikipedia.org/wiki/Melody_Kay'
p241
aS'http://en.wikipedia.org/wiki/Candis_Cayne'
p242
aS'http://en.wikipedia.org/wiki/Molly_Sims'
p243
aS'http://en.wikipedia.org/wiki/Edith_Luckett_Davis'
p244
aS'http://en.wikipedia.org/wiki/Sally_Mayes'
p245
aS'http://en.wikipedia.org/wiki/Estelle_Evans'
p246
aS'http://en.wikipedia.org/wiki/Destiny_Lightsy'
p247
aS'http://en.wikipedia.org/wiki/Mary_Pat_Gleason'
p248
aS'http://en.wikipedia.org/wiki/Ruth_Hart'
p249
aS'http://en.wikipedia.org/wiki/Charis_Michelsen'
p250
aS'http://en.wikipedia.org/wiki/Mary_Badham'
p251
aS'http://en.wikipedia.org/wiki/Colleen_Shannon'
p252
aS'http://en.wikipedia.org/wiki/Alexis_Dziena'
p253
aS'http://en.wikipedia.org/wiki/Janel_Parrish'
p254
aS'http://en.wikipedia.org/wiki/Jordan_Carver'
p255
aS'http://en.wikipedia.org/wiki/Amy_Jo_Johnson'
p256
aS'http://en.wikipedia.org/wiki/Kerissa_Fare'
p257
aS'http://en.wikipedia.org/wiki/Niecy_Nash'
p258
aS'http://en.wikipedia.org/wiki/Amy_Irving'
p259
aS'http://en.wikipedia.org/wiki/Edwina_Booth'
p260
aS'http://en.wikipedia.org/wiki/Cody_Horn'
p261
aS'http://en.wikipedia.org/wiki/Summer_Phoenix'
p262
aS'http://en.wikipedia.org/wiki/Sharon_Farrell'
p263
aS'http://en.wikipedia.org/wiki/Jennifer_Holt'
p264
aS'http://en.wikipedia.org/wiki/Neva_Gerber'
p265
aS'http://en.wikipedia.org/wiki/Betty_Bronson'
p266
aS'http://en.wikipedia.org/wiki/Tristine_Skyler'
p267
aS'http://en.wikipedia.org/wiki/Margo_Woode'
p268
aS'http://en.wikipedia.org/wiki/Michaela_Watkins'
p269
aS'http://en.wikipedia.org/wiki/Hope_Lange'
p270
aS'http://en.wikipedia.org/wiki/Terry_Finn'
p271
aS'http://en.wikipedia.org/wiki/Grace_Fulton'
p272
aS'http://en.wikipedia.org/wiki/Lynne_Roberts'
p273
aS'http://en.wikipedia.org/wiki/Constance_Bennett'
p274
aS'http://en.wikipedia.org/wiki/Nicole_Garza'
p275
aS'http://en.wikipedia.org/wiki/Cara_Mia_Wayans'
p276
aS'http://en.wikipedia.org/wiki/Maddy_Curley'
p277
aS'http://en.wikipedia.org/wiki/Cheryl_Miller_(actress)'
p278
aS'http://en.wikipedia.org/wiki/Laurel_Page'
p279
aS'http://en.wikipedia.org/wiki/Iva_Shepard'
p280
aS'http://en.wikipedia.org/wiki/Nina_Arianda'
p281
aS'http://en.wikipedia.org/wiki/Frances_Raines'
p282
aS'http://en.wikipedia.org/wiki/Jill_Whelan'
p283
aS'http://en.wikipedia.org/wiki/Amelia_Campbell'
p284
aS'http://en.wikipedia.org/wiki/Cheryl_Barnes'
p285
aS'http://en.wikipedia.org/wiki/Elizabeth_Allen_(actress)'
p286
aS'http://en.wikipedia.org/wiki/Linda_Lavin'
p287
aS'http://en.wikipedia.org/wiki/Heidi_Kozak'
p288
aS'http://en.wikipedia.org/wiki/Ellary_Porterfield'
p289
aS'http://en.wikipedia.org/wiki/Patty_Duke'
p290
aS'http://en.wikipedia.org/wiki/Stefanie_Powers'
p291
aS'http://en.wikipedia.org/wiki/Amber_Stevens'
p292
aS'http://en.wikipedia.org/wiki/Jane_Seymour_(Canadian_actress)'
p293
aS'http://en.wikipedia.org/wiki/Joie_Lee'
p294
aS'http://en.wikipedia.org/wiki/Nikki_Griffin'
p295
aS'http://en.wikipedia.org/wiki/Maggie_McNamara'
p296
aS'http://en.wikipedia.org/wiki/Evelyn_Rudie'
p297
aS'http://en.wikipedia.org/wiki/Juliet_Landau'
p298
aS'http://en.wikipedia.org/wiki/Ma%27Niche'
p299
aS'http://en.wikipedia.org/wiki/Patricia_Clarkson'
p300
aS'http://en.wikipedia.org/wiki/Lissa_Lauria'
p301
aS'http://en.wikipedia.org/wiki/Meryl_Streep'
p302
aS'http://en.wikipedia.org/wiki/Janet_Carroll'
p303
aS'http://en.wikipedia.org/wiki/Karen_McDougal'
p304
aS'http://en.wikipedia.org/wiki/Carol_Kane'
p305
aS'http://en.wikipedia.org/wiki/Taryn_Manning'
p306
aS'http://en.wikipedia.org/wiki/Carmel_Myers'
p307
aS'http://en.wikipedia.org/wiki/Hailey_Anne_Nelson'
p308
aS'http://en.wikipedia.org/wiki/Dolly_Parton'
p309
aS'http://en.wikipedia.org/wiki/Kelly_Bishop'
p310
aS'http://en.wikipedia.org/wiki/Brittany_Snow'
p311
aS'http://en.wikipedia.org/wiki/Lili_Simmons'
p312
aS'http://en.wikipedia.org/wiki/Phyllis_Frelich'
p313
aS'http://en.wikipedia.org/wiki/Lauren_Jelencovich'
p314
aS'http://en.wikipedia.org/wiki/Theresa_Russell'
p315
aS'http://en.wikipedia.org/wiki/Melissa_Ponzio'
p316
aS'http://en.wikipedia.org/wiki/Lois_Austin'
p317
aS'http://en.wikipedia.org/wiki/Jaime_Pressly'
p318
aS'http://en.wikipedia.org/wiki/Hope_Summers'
p319
aS'http://en.wikipedia.org/wiki/Layla_Sarakalo'
p320
aS'http://en.wikipedia.org/wiki/Jennifer_Tisdale'
p321
aS'http://en.wikipedia.org/wiki/Frances_Rich'
p322
aS'http://en.wikipedia.org/wiki/Lauren_Walsh'
p323
aS'http://en.wikipedia.org/wiki/Fiona_Hogan'
p324
aS'http://en.wikipedia.org/wiki/Miranda_Cosgrove'
p325
aS'http://en.wikipedia.org/wiki/Alice_Nunn'
p326
aS'http://en.wikipedia.org/wiki/Summer_Bishil'
p327
aS'http://en.wikipedia.org/wiki/Lynn_Carlin'
p328
aS'http://en.wikipedia.org/wiki/Ellen_Albertini_Dow'
p329
aS'http://en.wikipedia.org/wiki/Michele_Marsh_(actress)'
p330
aS'http://en.wikipedia.org/wiki/Tina_Chen'
p331
aS'http://en.wikipedia.org/wiki/Stefania_Barr'
p332
aS'http://en.wikipedia.org/wiki/Marion_Mack'
p333
aS'http://en.wikipedia.org/wiki/Mischa_Barton'
p334
aS'http://en.wikipedia.org/wiki/Victoria_Dillard'
p335
aS'http://en.wikipedia.org/wiki/Sarah_Hagan'
p336
aS'http://en.wikipedia.org/wiki/Bianca_Lawson'
p337
aS'http://en.wikipedia.org/wiki/Laura_Koffman'
p338
aS'http://en.wikipedia.org/wiki/Susan_Morrow'
p339
aS'http://en.wikipedia.org/wiki/Katherine_Bailess'
p340
aS'http://en.wikipedia.org/wiki/Mary_Stuart_Masterson'
p341
aS'http://en.wikipedia.org/wiki/Evelyn_%22Champagne%22_King'
p342
aS'http://en.wikipedia.org/wiki/Maxine_Stuart'
p343
aS'http://en.wikipedia.org/wiki/Maysoon_Zayid'
p344
aS'http://en.wikipedia.org/wiki/Erin_Cummings'
p345
aS'http://en.wikipedia.org/wiki/Kat_Coiro'
p346
aS'http://en.wikipedia.org/wiki/Venus_DeMilo'
p347
aS'http://en.wikipedia.org/wiki/Jean_Howard'
p348
aS'http://en.wikipedia.org/wiki/Gladys_McConnell'
p349
aS'http://en.wikipedia.org/wiki/Rita_Carewe'
p350
aS'http://en.wikipedia.org/wiki/Rosalie_Ward'
p351
aS'http://en.wikipedia.org/wiki/Kimberly_Hester'
p352
aS'http://en.wikipedia.org/wiki/Dorothy_Hyson'
p353
aS'http://en.wikipedia.org/wiki/Frances_Howard_(actress)'
p354
aS'http://en.wikipedia.org/wiki/Moira_Harris'
p355
aS'http://en.wikipedia.org/wiki/Belinda_Carlisle'
p356
aS'http://en.wikipedia.org/wiki/Anna_Faris'
p357
aS'http://en.wikipedia.org/wiki/Jenny_Slate'
p358
aS'http://en.wikipedia.org/wiki/Inez_Palange'
p359
aS'http://en.wikipedia.org/wiki/Sue_Lyon'
p360
aS'http://en.wikipedia.org/wiki/Ilene_Graff'
p361
aS'http://en.wikipedia.org/wiki/Crystal_Celeste_Grant'
p362
aS'http://en.wikipedia.org/wiki/Jill_Dennett'
p363
aS'http://en.wikipedia.org/wiki/Jeannine_Riley'
p364
aS'http://en.wikipedia.org/wiki/Regina_Taylor'
p365
aS'http://en.wikipedia.org/wiki/Cindy_Crawford'
p366
aS'http://en.wikipedia.org/wiki/Marilyn_Martinez'
p367
aS'http://en.wikipedia.org/wiki/Caprice_Benedetti'
p368
aS'http://en.wikipedia.org/wiki/Jane_Novak'
p369
aS'http://en.wikipedia.org/wiki/Lydia_Cornell'
p370
aS'http://en.wikipedia.org/wiki/Kelsey_Chow'
p371
aS'http://en.wikipedia.org/wiki/Taryn_Southern'
p372
aS'http://en.wikipedia.org/wiki/Poni_Adams'
p373
aS'http://en.wikipedia.org/wiki/Gloria_Foster'
p374
aS'http://en.wikipedia.org/wiki/Laura_La_Plante'
p375
aS'http://en.wikipedia.org/wiki/Helen_Shipman'
p376
aS'http://en.wikipedia.org/wiki/Jennifer_Syme'
p377
aS'http://en.wikipedia.org/wiki/Courtney_Halverson'
p378
aS'http://en.wikipedia.org/wiki/Kitty_Carlisle'
p379
aS'http://en.wikipedia.org/wiki/Laraine_Day'
p380
aS'http://en.wikipedia.org/wiki/Gloria_Lloyd'
p381
aS'http://en.wikipedia.org/wiki/Mae_Marsh'
p382
aS'http://en.wikipedia.org/wiki/Kaleena_Kiff'
p383
aS'http://en.wikipedia.org/wiki/Justina_Machado'
p384
aS'http://en.wikipedia.org/wiki/Kathryn_Kates'
p385
aS'http://en.wikipedia.org/wiki/Ruth_Terry'
p386
aS'http://en.wikipedia.org/wiki/Margalo_Gillmore'
p387
aS'http://en.wikipedia.org/wiki/Joanna_Stingray'
p388
aS'http://en.wikipedia.org/wiki/Lori_Beth_Denberg'
p389
aS'http://en.wikipedia.org/wiki/Rosamond_Pinchot'
p390
aS'http://en.wikipedia.org/wiki/Gilda_Gray'
p391
aS'http://en.wikipedia.org/wiki/Linda_Blair'
p392
aS'http://en.wikipedia.org/wiki/Lisa_Guerrero'
p393
aS'http://en.wikipedia.org/wiki/Kaitlin_Doubleday'
p394
aS'http://en.wikipedia.org/wiki/Belle_Montrose'
p395
aS'http://en.wikipedia.org/wiki/Auti_Angel'
p396
aS'http://en.wikipedia.org/wiki/Kim_Greist'
p397
aS'http://en.wikipedia.org/wiki/Cassi_Thomson'
p398
aS'http://en.wikipedia.org/wiki/Anita_Louise'
p399
aS'http://en.wikipedia.org/wiki/Kathryn_Sheldon'
p400
aS'http://en.wikipedia.org/wiki/Fanny_Midgley'
p401
aS'http://en.wikipedia.org/wiki/Judy_Nugent'
p402
aS'http://en.wikipedia.org/wiki/Meredith_Patterson'
p403
aS'http://en.wikipedia.org/wiki/Abby_Dalton'
p404
aS'http://en.wikipedia.org/wiki/Lauren_Francesca'
p405
aS'http://en.wikipedia.org/wiki/Mary_Jo_Deschanel'
p406
aS'http://en.wikipedia.org/wiki/Novella_Nelson'
p407
aS'http://en.wikipedia.org/wiki/Kimberly_Elise'
p408
aS'http://en.wikipedia.org/wiki/Rosa_Salazar'
p409
aS'http://en.wikipedia.org/wiki/Martha_Gehman'
p410
aS'http://en.wikipedia.org/wiki/Bijou_Phillips'
p411
aS'http://en.wikipedia.org/wiki/Vanessa_Brown'
p412
aS'http://en.wikipedia.org/wiki/Anne_Sargent'
p413
aS'http://en.wikipedia.org/wiki/Mollie_McConnell'
p414
aS'http://en.wikipedia.org/wiki/Laura_Harring'
p415
aS'http://en.wikipedia.org/wiki/Carole_Cook'
p416
aS'http://en.wikipedia.org/wiki/Megan_Ketch'
p417
aS'http://en.wikipedia.org/wiki/Billie_Seward'
p418
aS'http://en.wikipedia.org/wiki/Sunny_Harnett'
p419
aS'http://en.wikipedia.org/wiki/Libby_Holman'
p420
aS'http://en.wikipedia.org/wiki/Jordana_Brewster'
p421
aS'http://en.wikipedia.org/wiki/Susan_Browning'
p422
aS'http://en.wikipedia.org/wiki/Danielle_Hoover'
p423
aS'http://en.wikipedia.org/wiki/Sandy_Fox'
p424
aS'http://en.wikipedia.org/wiki/Yvonne_Perry'
p425
aS'http://en.wikipedia.org/wiki/Tamara_Jenkins'
p426
aS'http://en.wikipedia.org/wiki/Christina_Vidal'
p427
aS'http://en.wikipedia.org/wiki/Kate_Mara'
p428
aS'http://en.wikipedia.org/wiki/Debbie_Gravitte'
p429
aS'http://en.wikipedia.org/wiki/Sarah_Holcomb'
p430
aS'http://en.wikipedia.org/wiki/Mary_Kay_Adams'
p431
aS'http://en.wikipedia.org/wiki/Jane_A._Rogers'
p432
aS'http://en.wikipedia.org/wiki/Darlene_Conley'
p433
aS'http://en.wikipedia.org/wiki/Charisma_Carpenter'
p434
aS'http://en.wikipedia.org/wiki/Lucille_Ward'
p435
aS'http://en.wikipedia.org/wiki/Dorothy_Tree'
p436
aS'http://en.wikipedia.org/wiki/Betta_St._John'
p437
aS'http://en.wikipedia.org/wiki/Olive_Carey'
p438
aS'http://en.wikipedia.org/wiki/Kathryn_Layng'
p439
aS'http://en.wikipedia.org/wiki/Billie_Bennett'
p440
aS'http://en.wikipedia.org/wiki/Diahann_Carroll'
p441
aS'http://en.wikipedia.org/wiki/Alaina_Reed_Hall'
p442
aS'http://en.wikipedia.org/wiki/Kathryn_Graf'
p443
aS'http://en.wikipedia.org/wiki/Vicki_Lewis'
p444
aS'http://en.wikipedia.org/wiki/Davetta_Sherwood'
p445
aS'http://en.wikipedia.org/wiki/Mandy_Rain'
p446
aS'http://en.wikipedia.org/wiki/Lindsay_Lohan'
p447
aS'http://en.wikipedia.org/wiki/Mitzi_Martin'
p448
aS'http://en.wikipedia.org/wiki/Natalie_Portman'
p449
aS'http://en.wikipedia.org/wiki/Ynez_Seabury'
p450
aS'http://en.wikipedia.org/wiki/Kay_Heberle'
p451
aS'http://en.wikipedia.org/wiki/Ren%C3%A9e_Jones'
p452
aS'http://en.wikipedia.org/wiki/Sally_Kirkland'
p453
aS'http://en.wikipedia.org/wiki/Blake_Lindsley'
p454
aS'http://en.wikipedia.org/wiki/Amy_Seimetz'
p455
aS'http://en.wikipedia.org/wiki/Priscilla_Dean'
p456
aS'http://en.wikipedia.org/wiki/Jennifer_Freeman'
p457
aS'http://en.wikipedia.org/wiki/Megan_Dodds'
p458
aS'http://en.wikipedia.org/wiki/Miriam_Flynn'
p459
aS'http://en.wikipedia.org/wiki/Logan_Browning'
p460
aS'http://en.wikipedia.org/wiki/Kaycee_Stroh'
p461
aS'http://en.wikipedia.org/wiki/Louise_Stanley'
p462
aS'http://en.wikipedia.org/wiki/Jane_Lynch'
p463
aS'http://en.wikipedia.org/wiki/Diane_McBain'
p464
aS'http://en.wikipedia.org/wiki/Suzy_Chaffee'
p465
aS'http://en.wikipedia.org/wiki/Sara_Tanaka'
p466
aS'http://en.wikipedia.org/wiki/Kim_Dickens'
p467
aS'http://en.wikipedia.org/wiki/Lois_Nettleton'
p468
aS'http://en.wikipedia.org/wiki/Kim_Ostrenko'
p469
aS'http://en.wikipedia.org/wiki/Emma_Caulfield'
p470
aS'http://en.wikipedia.org/wiki/Lola_Glaudini'
p471
aS'http://en.wikipedia.org/wiki/Heather_Ankeny'
p472
aS'http://en.wikipedia.org/wiki/Alexandra_Holden'
p473
aS'http://en.wikipedia.org/wiki/Kathy_Griffin'
p474
aS'http://en.wikipedia.org/wiki/Ann_Blyth'
p475
aS'http://en.wikipedia.org/wiki/Lee_Grant'
p476
aS'http://en.wikipedia.org/wiki/Mary_Pickford'
p477
aS'http://en.wikipedia.org/wiki/Bunny_Gibson'
p478
aS'http://en.wikipedia.org/wiki/Lillian_Lux'
p479
aS'http://en.wikipedia.org/wiki/Courtney_Thorne-Smith'
p480
aS'http://en.wikipedia.org/wiki/Joan_Crawford'
p481
aS'http://en.wikipedia.org/wiki/Frankie_Shaw'
p482
aS'http://en.wikipedia.org/wiki/Elaine_Barrie'
p483
aS'http://en.wikipedia.org/wiki/Wanda_De_Jesus'
p484
aS'http://en.wikipedia.org/wiki/Christine_Healy'
p485
aS'http://en.wikipedia.org/wiki/Veronica_Porsche_Ali'
p486
aS'http://en.wikipedia.org/wiki/Wendy_Calio'
p487
aS'http://en.wikipedia.org/wiki/Patience_Cleveland'
p488
aS'http://en.wikipedia.org/wiki/Mary_Vivian_Pearce'
p489
aS'http://en.wikipedia.org/wiki/Laura_Bell_Bundy'
p490
aS'http://en.wikipedia.org/wiki/Rachel_Dratch'
p491
aS'http://en.wikipedia.org/wiki/Evelyn_Finley'
p492
aS'http://en.wikipedia.org/wiki/Cynthia_Harris'
p493
aS'http://en.wikipedia.org/wiki/Amy_Van_Nostrand'
p494
aS'http://en.wikipedia.org/wiki/Kenya_Moore'
p495
aS'http://en.wikipedia.org/wiki/Jillian_Kesner-Graver'
p496
aS'http://en.wikipedia.org/wiki/Joey_Lauren_Adams'
p497
aS'http://en.wikipedia.org/wiki/Audrey_Chapman'
p498
aS'http://en.wikipedia.org/wiki/Jennifer_Aniston'
p499
aS'http://en.wikipedia.org/wiki/Jana_Thompson'
p500
aS'http://en.wikipedia.org/wiki/Julia_Rose'
p501
aS'http://en.wikipedia.org/wiki/Sara_Erikson'
p502
aS'http://en.wikipedia.org/wiki/Constance_Shulman'
p503
aS'http://en.wikipedia.org/wiki/Eileen_Chesis'
p504
aS'http://en.wikipedia.org/wiki/Tilly_Losch'
p505
aS'http://en.wikipedia.org/wiki/Jennifer_Gatti'
p506
aS'http://en.wikipedia.org/wiki/Jennifer_Carpenter'
p507
aS'http://en.wikipedia.org/wiki/Cherami_Leigh'
p508
aS'http://en.wikipedia.org/wiki/Kieu_Chinh'
p509
aS'http://en.wikipedia.org/wiki/Stacie_Chan'
p510
aS'http://en.wikipedia.org/wiki/Kay_Hughes'
p511
aS'http://en.wikipedia.org/wiki/Alexandra_Cheron'
p512
aS'http://en.wikipedia.org/wiki/Louise_Caire_Clark'
p513
aS'http://en.wikipedia.org/wiki/Shamika_Cotton'
p514
aS'http://en.wikipedia.org/wiki/Maggie_Wheeler'
p515
aS'http://en.wikipedia.org/wiki/Vivien_Cardone'
p516
aS'http://en.wikipedia.org/wiki/Penny_Drake'
p517
aS'http://en.wikipedia.org/wiki/Alice_Lake'
p518
aS'http://en.wikipedia.org/wiki/Rita_Hayworth'
p519
aS'http://en.wikipedia.org/wiki/Adele_Farrington'
p520
aS'http://en.wikipedia.org/wiki/Dakota_Johnson'
p521
aS'http://en.wikipedia.org/wiki/Lainie_Kazan'
p522
aS'http://en.wikipedia.org/wiki/Tracy_Nelson_(actress)'
p523
aS'http://en.wikipedia.org/wiki/Debra_Laws'
p524
aS'http://en.wikipedia.org/wiki/Beverley_Mitchell'
p525
aS'http://en.wikipedia.org/wiki/Dana_Fuchs'
p526
aS'http://en.wikipedia.org/wiki/Elinor_Fair'
p527
aS'http://en.wikipedia.org/wiki/Brooke_Shields'
p528
aS'http://en.wikipedia.org/wiki/Helen_Raymond'
p529
aS'http://en.wikipedia.org/wiki/Tracey_Birdsall-Smith'
p530
aS'http://en.wikipedia.org/wiki/Meg_Wyllie'
p531
aS'http://en.wikipedia.org/wiki/Linda_Hopper'
p532
aS'http://en.wikipedia.org/wiki/Kari_Nissena'
p533
aS'http://en.wikipedia.org/wiki/Eliza_Coupe'
p534
aS'http://en.wikipedia.org/wiki/Jodi_Thelen'
p535
aS'http://en.wikipedia.org/wiki/Adair_Tishler'
p536
aS'http://en.wikipedia.org/wiki/Rachel_True'
p537
aS'http://en.wikipedia.org/wiki/Iliza_Shlesinger'
p538
aS'http://en.wikipedia.org/wiki/Judy_Garland'
p539
aS'http://en.wikipedia.org/wiki/Irene_Hervey'
p540
aS'http://en.wikipedia.org/wiki/Movita_Castaneda'
p541
aS'http://en.wikipedia.org/wiki/Casey_Johnson'
p542
aS'http://en.wikipedia.org/wiki/Teri_Shields'
p543
aS'http://en.wikipedia.org/wiki/Ryan_Starr'
p544
aS'http://en.wikipedia.org/wiki/Janeane_Garofalo'
p545
aS'http://en.wikipedia.org/wiki/Nicole_Kidman'
p546
aS'http://en.wikipedia.org/wiki/Tichina_Arnold'
p547
aS'http://en.wikipedia.org/wiki/Maggie_Lawson'
p548
aS'http://en.wikipedia.org/wiki/Sosie_Bacon'
p549
aS'http://en.wikipedia.org/wiki/Brenda_Vaccaro'
p550
aS'http://en.wikipedia.org/wiki/Jessica_Lu'
p551
aS'http://en.wikipedia.org/wiki/Bonnie_MacBird'
p552
aS'http://en.wikipedia.org/wiki/Lucy_Cotton'
p553
aS'http://en.wikipedia.org/wiki/Zoe_Rae'
p554
aS'http://en.wikipedia.org/wiki/Susanna_Hoffs'
p555
aS'http://en.wikipedia.org/wiki/Beth_Fowler'
p556
aS'http://en.wikipedia.org/wiki/Patricia_Neal'
p557
aS'http://en.wikipedia.org/wiki/Julie_Strain'
p558
aS'http://en.wikipedia.org/wiki/India_Scandrick'
p559
aS'http://en.wikipedia.org/wiki/Sarah_Jones_(screen_actress)'
p560
aS'http://en.wikipedia.org/wiki/Glesca_Marshall'
p561
aS'http://en.wikipedia.org/wiki/Kathy_Rose'
p562
aS'http://en.wikipedia.org/wiki/Ava_Fabian'
p563
aS'http://en.wikipedia.org/wiki/Sara_Adler'
p564
aS'http://en.wikipedia.org/wiki/Kimberly_Beck'
p565
aS'http://en.wikipedia.org/wiki/Anna_Q._Nilsson'
p566
aS'http://en.wikipedia.org/wiki/Penny_Bae_Bridges'
p567
aS'http://en.wikipedia.org/wiki/Shanna_Moakler'
p568
aS'http://en.wikipedia.org/wiki/Mekenna_Melvin'
p569
aS'http://en.wikipedia.org/wiki/Heather_Graham'
p570
aS'http://en.wikipedia.org/wiki/Mary_Beth_Hurt'
p571
aS'http://en.wikipedia.org/wiki/Jammes_Luckett'
p572
aS'http://en.wikipedia.org/wiki/Ellen_Burstyn'
p573
aS'http://en.wikipedia.org/wiki/Vitamin_C_(singer)'
p574
aS'http://en.wikipedia.org/wiki/Maura_Tierney'
p575
aS'http://en.wikipedia.org/wiki/Buff_Cobb'
p576
aS'http://en.wikipedia.org/wiki/Katrina_Parker'
p577
aS'http://en.wikipedia.org/wiki/Marge_Kotlisky'
p578
aS'http://en.wikipedia.org/wiki/Natalie_Zea'
p579
aS'http://en.wikipedia.org/wiki/Leland_Palmer_(actress)'
p580
aS'http://en.wikipedia.org/wiki/Constance_McCashin'
p581
aS'http://en.wikipedia.org/wiki/Jamie_Anne_Allman'
p582
aS'http://en.wikipedia.org/wiki/Sonya_Eddy'
p583
aS'http://en.wikipedia.org/wiki/Concetta_Tomei'
p584
aS'http://en.wikipedia.org/wiki/Helen_Martin'
p585
aS'http://en.wikipedia.org/wiki/Sara_Ramirez'
p586
aS'http://en.wikipedia.org/wiki/Jennifer_Gan'
p587
aS'http://en.wikipedia.org/wiki/Christina_Applegate'
p588
aS'http://en.wikipedia.org/wiki/Agnes_Bruckner'
p589
aS'http://en.wikipedia.org/wiki/Josette_Banzet'
p590
aS'http://en.wikipedia.org/wiki/Ina_Balin'
p591
aS'http://en.wikipedia.org/wiki/Janet_Leigh'
p592
aS'http://en.wikipedia.org/wiki/Susan_Tolsky'
p593
aS'http://en.wikipedia.org/wiki/Lisa_Vidal'
p594
aS'http://en.wikipedia.org/wiki/Carol_Grace'
p595
aS'http://en.wikipedia.org/wiki/Caryl_Lincoln'
p596
aS'http://en.wikipedia.org/wiki/Martha_Raye'
p597
aS'http://en.wikipedia.org/wiki/Joy_Boushel'
p598
aS'http://en.wikipedia.org/wiki/Hope_Davis'
p599
aS'http://en.wikipedia.org/wiki/Natasha_Melnick'
p600
aS'http://en.wikipedia.org/wiki/Marpessa_Dawn'
p601
aS'http://en.wikipedia.org/wiki/Michelle_Wolff'
p602
aS'http://en.wikipedia.org/wiki/Norah_Jones'
p603
aS'http://en.wikipedia.org/wiki/Vivian_Martin'
p604
aS'http://en.wikipedia.org/wiki/Taylor_Schilling'
p605
aS'http://en.wikipedia.org/wiki/India_Ennenga'
p606
aS'http://en.wikipedia.org/wiki/Joan_Hotchkis'
p607
aS'http://en.wikipedia.org/wiki/Nicki_Minaj'
p608
aS'http://en.wikipedia.org/wiki/Elise_Cavanna'
p609
aS'http://en.wikipedia.org/wiki/Elizabeth_Harrower_(actress)'
p610
aS'http://en.wikipedia.org/wiki/Sally_Struthers'
p611
aS'http://en.wikipedia.org/wiki/Dorothy_Adams'
p612
aS'http://en.wikipedia.org/wiki/Lillian_Leighton'
p613
aS'http://en.wikipedia.org/wiki/Elizabeth_Parrish'
p614
aS'http://en.wikipedia.org/wiki/Molly_Price'
p615
aS'http://en.wikipedia.org/wiki/Laurene_Landon'
p616
aS'http://en.wikipedia.org/wiki/Doris_Pawn'
p617
aS'http://en.wikipedia.org/wiki/Priscilla_Presley'
p618
aS'http://en.wikipedia.org/wiki/Norma_Shearer'
p619
aS'http://en.wikipedia.org/wiki/Gloria_Holden'
p620
aS'http://en.wikipedia.org/wiki/Kathryn_Fiore'
p621
aS'http://en.wikipedia.org/wiki/Jana_Kramer'
p622
aS'http://en.wikipedia.org/wiki/Nicole_Steinwedell'
p623
aS'http://en.wikipedia.org/wiki/Rowan_Blanchard'
p624
aS'http://en.wikipedia.org/wiki/Myra_Turley'
p625
aS'http://en.wikipedia.org/wiki/Carlotta_Monti'
p626
aS'http://en.wikipedia.org/wiki/Kate_Murtagh'
p627
aS'http://en.wikipedia.org/wiki/Marlo_Thomas'
p628
aS'http://en.wikipedia.org/wiki/Judith_Barrett'
p629
aS'http://en.wikipedia.org/wiki/Leighton_Meester'
p630
aS'http://en.wikipedia.org/wiki/Joely_Fisher'
p631
aS'http://en.wikipedia.org/wiki/Jessica_Capshaw'
p632
aS'http://en.wikipedia.org/wiki/Cindy_Cheung_(actress)'
p633
aS'http://en.wikipedia.org/wiki/Kathleen_Key'
p634
aS'http://en.wikipedia.org/wiki/Gail_Boggs'
p635
aS'http://en.wikipedia.org/wiki/Millie_Perkins'
p636
aS'http://en.wikipedia.org/wiki/Ashley_Laurence'
p637
aS'http://en.wikipedia.org/wiki/Dale_Fuller_(actress)'
p638
aS'http://en.wikipedia.org/wiki/Julie_St._Claire'
p639
aS'http://en.wikipedia.org/wiki/Natalia_Cigliuti'
p640
aS'http://en.wikipedia.org/wiki/Bibbe_Hansen'
p641
aS'http://en.wikipedia.org/wiki/Leila_Arcieri'
p642
aS'http://en.wikipedia.org/wiki/Tina_Turner'
p643
aS'http://en.wikipedia.org/wiki/Alley_Mills'
p644
aS'http://en.wikipedia.org/wiki/Cara_DeLizia'
p645
aS'http://en.wikipedia.org/wiki/Sofia_Black_D%27Elia'
p646
aS'http://en.wikipedia.org/wiki/Jan_Hoag'
p647
aS'http://en.wikipedia.org/wiki/Drew_Sidora'
p648
aS'http://en.wikipedia.org/wiki/Kathleen_Bryson'
p649
aS'http://en.wikipedia.org/wiki/Karla_Cheatham_Mosley'
p650
aS'http://en.wikipedia.org/wiki/Marlene_Dietrich'
p651
aS'http://en.wikipedia.org/wiki/Rhonda_Fleming'
p652
aS'http://en.wikipedia.org/wiki/Lynne_Marta'
p653
aS'http://en.wikipedia.org/wiki/Amzie_Strickland'
p654
aS'http://en.wikipedia.org/wiki/Estelle_Harris'
p655
aS'http://en.wikipedia.org/wiki/Anastasia_Ganias'
p656
aS'http://en.wikipedia.org/wiki/Janet_Beecher'
p657
aS'http://en.wikipedia.org/wiki/Margaret_Markov'
p658
aS'http://en.wikipedia.org/wiki/Jean_Hale'
p659
aS'http://en.wikipedia.org/wiki/Lorraine_Huling_Maynard'
p660
aS'http://en.wikipedia.org/wiki/Irene_Franklin'
p661
aS'http://en.wikipedia.org/wiki/Lillian_Herlein'
p662
a.