(lp0
S'http://en.wikipedia.org/wiki/Perla_Haney-Jardine'
p1
aS'http://en.wikipedia.org/wiki/Alexandra_Daddario'
p2
aS'http://en.wikipedia.org/wiki/Claudia_Christian'
p3
aS'http://en.wikipedia.org/wiki/Claudia_McNeil'
p4
aS'http://en.wikipedia.org/wiki/Kyme_(actress)'
p5
aS'http://en.wikipedia.org/wiki/Taylor_Dayne'
p6
aS'http://en.wikipedia.org/wiki/Lupe_Ontiveros'
p7
aS'http://en.wikipedia.org/wiki/Laura_Cer%C3%B3n'
p8
aS'http://en.wikipedia.org/wiki/Michaela_McManus'
p9
aS'http://en.wikipedia.org/wiki/Jessica_Chastain'
p10
aS'http://en.wikipedia.org/wiki/Christine_Baranski'
p11
aS'http://en.wikipedia.org/wiki/Anne_Howard_(actress)'
p12
aS'http://en.wikipedia.org/wiki/Kaitlin_Cullum'
p13
aS'http://en.wikipedia.org/wiki/LuAnn_de_Lesseps'
p14
aS'http://en.wikipedia.org/wiki/Sabrina_Bryan'
p15
aS'http://en.wikipedia.org/wiki/Joan_Allen'
p16
aS'http://en.wikipedia.org/wiki/Martha_Wentworth'
p17
aS'http://en.wikipedia.org/wiki/Tristin_Mays'
p18
aS'http://en.wikipedia.org/wiki/Lena_Hall'
p19
aS'http://en.wikipedia.org/wiki/Laurie_Bartram'
p20
aS'http://en.wikipedia.org/wiki/Kerris_Dorsey'
p21
aS'http://en.wikipedia.org/wiki/Rachel_Bilson'
p22
aS'http://en.wikipedia.org/wiki/Jayma_Mays'
p23
aS'http://en.wikipedia.org/wiki/Flora_Chan'
p24
aS'http://en.wikipedia.org/wiki/Christy_Hartburg'
p25
aS'http://en.wikipedia.org/wiki/Daria_Halprin'
p26
aS'http://en.wikipedia.org/wiki/Lori_Cardille'
p27
aS'http://en.wikipedia.org/wiki/Kathryn_Layng'
p28
aS'http://en.wikipedia.org/wiki/Kate_Williamson'
p29
aS'http://en.wikipedia.org/wiki/April_Parker_Jones'
p30
aS'http://en.wikipedia.org/wiki/Kate_McKinnon'
p31
aS'http://en.wikipedia.org/wiki/Anne_Meara'
p32
aS'http://en.wikipedia.org/wiki/Briana_Evigan'
p33
aS'http://en.wikipedia.org/wiki/Anne_Meacham'
p34
aS'http://en.wikipedia.org/wiki/Jane_Isbell'
p35
aS'http://en.wikipedia.org/wiki/Geena_Davis'
p36
aS'http://en.wikipedia.org/wiki/Constance_Forslund'
p37
aS'http://en.wikipedia.org/wiki/Amanda_Detmer'
p38
aS'http://en.wikipedia.org/wiki/Patsy_Ruth_Miller'
p39
aS'http://en.wikipedia.org/wiki/Tramaine_Hawkins'
p40
aS'http://en.wikipedia.org/wiki/Mia_Tyler'
p41
aS'http://en.wikipedia.org/wiki/Linda_Doucett'
p42
aS'http://en.wikipedia.org/wiki/Michele_Hicks'
p43
aS'http://en.wikipedia.org/wiki/Marjorie_Eaton'
p44
aS'http://en.wikipedia.org/wiki/Lisa_Janti'
p45
aS'http://en.wikipedia.org/wiki/Miranda_Cosgrove'
p46
aS'http://en.wikipedia.org/wiki/Lana_Wood'
p47
aS'http://en.wikipedia.org/wiki/Yvonne_Hughes'
p48
aS'http://en.wikipedia.org/wiki/Gloria_Winters'
p49
aS'http://en.wikipedia.org/wiki/Lil_Mama'
p50
aS'http://en.wikipedia.org/wiki/Blanche_Yurka'
p51
aS'http://en.wikipedia.org/wiki/Maureen_Anderman'
p52
aS'http://en.wikipedia.org/wiki/Connie_Champagne'
p53
aS'http://en.wikipedia.org/wiki/Lisa_Arch'
p54
aS'http://en.wikipedia.org/wiki/Syr_Law'
p55
aS'http://en.wikipedia.org/wiki/Lisa_Edelstein'
p56
aS'http://en.wikipedia.org/wiki/Gabrielle_Anwar'
p57
aS'http://en.wikipedia.org/wiki/Sharry_Konopski'
p58
aS'http://en.wikipedia.org/wiki/Lauren_Tom'
p59
aS'http://en.wikipedia.org/wiki/Lynn_Carlin'
p60
aS'http://en.wikipedia.org/wiki/Nicole_Bilderback'
p61
aS'http://en.wikipedia.org/wiki/Jordin_Sparks'
p62
aS'http://en.wikipedia.org/wiki/Audrey_Wasilewski'
p63
aS'http://en.wikipedia.org/wiki/Parker_Posey'
p64
aS'http://en.wikipedia.org/wiki/Celeste_Holm'
p65
aS'http://en.wikipedia.org/wiki/Margaret_Colin'
p66
aS'http://en.wikipedia.org/wiki/Boots_Mallory'
p67
aS'http://en.wikipedia.org/wiki/Anne_Baxter'
p68
aS'http://en.wikipedia.org/wiki/Edie_Falco'
p69
aS'http://en.wikipedia.org/wiki/Joan_Juliet_Buck'
p70
aS'http://en.wikipedia.org/wiki/Janine_Turner'
p71
aS'http://en.wikipedia.org/wiki/Bessie_Eyton'
p72
aS'http://en.wikipedia.org/wiki/Lola_Glaudini'
p73
aS'http://en.wikipedia.org/wiki/David_Morales'
p74
aS'http://en.wikipedia.org/wiki/Eileen_April_Boylan'
p75
aS'http://en.wikipedia.org/wiki/Sarah_Stiles'
p76
aS'http://en.wikipedia.org/wiki/Mia_Wesley'
p77
aS'http://en.wikipedia.org/wiki/Miley_Cyrus'
p78
aS'http://en.wikipedia.org/wiki/Ambyr_Childers'
p79
aS'http://en.wikipedia.org/wiki/Mary_Boland'
p80
aS'http://en.wikipedia.org/wiki/Morgan_Lily'
p81
aS'http://en.wikipedia.org/wiki/Vernee_Watson-Johnson'
p82
aS'http://en.wikipedia.org/wiki/Helen_Vinson'
p83
aS'http://en.wikipedia.org/wiki/C._C._H._Pounder'
p84
aS'http://en.wikipedia.org/wiki/Felicity_Huffman'
p85
aS'http://en.wikipedia.org/wiki/Michele_Marsh_(actress)'
p86
aS'http://en.wikipedia.org/wiki/Jobyna_Howland'
p87
aS'http://en.wikipedia.org/wiki/Elizabeth_Parrish'
p88
aS'http://en.wikipedia.org/wiki/Maya_Deren'
p89
aS'http://en.wikipedia.org/wiki/Jennifer_Crystal_Foley'
p90
aS'http://en.wikipedia.org/wiki/Megalyn_Echikunwoke'
p91
aS'http://en.wikipedia.org/wiki/Diane_Franklin'
p92
aS'http://en.wikipedia.org/wiki/Karen_Morley'
p93
aS'http://en.wikipedia.org/wiki/Ruth_Duccini'
p94
aS'http://en.wikipedia.org/wiki/Lesley_Fera'
p95
aS'http://en.wikipedia.org/wiki/Tammy_Lynn_Leppert'
p96
aS'http://en.wikipedia.org/wiki/Bonnie_Poe'
p97
aS'http://en.wikipedia.org/wiki/Dorothy_Arnold_(actress)'
p98
aS'http://en.wikipedia.org/wiki/Pam_Dawber'
p99
aS'http://en.wikipedia.org/wiki/Anastasia_Baranova'
p100
aS'http://en.wikipedia.org/wiki/Nadia_Dajani'
p101
aS'http://en.wikipedia.org/wiki/Amy_O%27Neill'
p102
aS'http://en.wikipedia.org/wiki/Elaine_Hendrix'
p103
aS'http://en.wikipedia.org/wiki/Judy_Landers'
p104
aS'http://en.wikipedia.org/wiki/Jillian_Clare'
p105
aS'http://en.wikipedia.org/wiki/Hunter_Tylo'
p106
aS'http://en.wikipedia.org/wiki/Kortney_Nash'
p107
aS'http://en.wikipedia.org/wiki/Megan_Ward'
p108
aS'http://en.wikipedia.org/wiki/Viola_Richard'
p109
aS'http://en.wikipedia.org/wiki/Kiami_Davael'
p110
aS'http://en.wikipedia.org/wiki/Charlene_Amoia'
p111
aS'http://en.wikipedia.org/wiki/Vikki_Carr'
p112
aS'http://en.wikipedia.org/wiki/Joan_Shawlee'
p113
aS'http://en.wikipedia.org/wiki/Alisha_(singer)'
p114
aS'http://en.wikipedia.org/wiki/Phoebe_Legere'
p115
aS'http://en.wikipedia.org/wiki/Rachel_Covey'
p116
aS'http://en.wikipedia.org/wiki/Elizabeth_DeCicco'
p117
aS'http://en.wikipedia.org/wiki/Sarah_Clarke'
p118
aS'http://en.wikipedia.org/wiki/Katerina_Mikailenko'
p119
aS'http://en.wikipedia.org/wiki/Thelma_Houston'
p120
aS'http://en.wikipedia.org/wiki/Betty_White'
p121
aS'http://en.wikipedia.org/wiki/Susan_Ward'
p122
aS'http://en.wikipedia.org/wiki/Jane_Kaczmarek'
p123
aS'http://en.wikipedia.org/wiki/Mary_Tyler_Moore'
p124
aS'http://en.wikipedia.org/wiki/Jenna_Haze'
p125
aS'http://en.wikipedia.org/wiki/Clara_Kimball_Young'
p126
aS'http://en.wikipedia.org/wiki/Francia_Raisa'
p127
aS'http://en.wikipedia.org/wiki/Geraldine_Chaplin'
p128
aS'http://en.wikipedia.org/wiki/Brittany_Underwood'
p129
aS'http://en.wikipedia.org/wiki/Alice_Playten'
p130
aS'http://en.wikipedia.org/wiki/Rita_Hayworth'
p131
aS'http://en.wikipedia.org/wiki/Melanie_Specht'
p132
aS'http://en.wikipedia.org/wiki/Allie_DeBerry'
p133
aS'http://en.wikipedia.org/wiki/Gina_Torres'
p134
aS'http://en.wikipedia.org/wiki/Lillian_West'
p135
aS'http://en.wikipedia.org/wiki/Natashia_Williams'
p136
aS'http://en.wikipedia.org/wiki/Tia_Carrere'
p137
aS'http://en.wikipedia.org/wiki/Didi_Conn'
p138
aS'http://en.wikipedia.org/wiki/Rosemary_De_Angelis'
p139
aS'http://en.wikipedia.org/wiki/Gillette_(singer)'
p140
aS'http://en.wikipedia.org/wiki/Betsy_Russell'
p141
aS'http://en.wikipedia.org/wiki/Vanessa_Curry'
p142
aS'http://en.wikipedia.org/wiki/Lisa_Bonet'
p143
aS'http://en.wikipedia.org/wiki/Maura_Tierney'
p144
aS'http://en.wikipedia.org/wiki/Marion_Mack'
p145
aS'http://en.wikipedia.org/wiki/Anita_Garvin'
p146
aS'http://en.wikipedia.org/wiki/Camryn_Manheim'
p147
aS'http://en.wikipedia.org/wiki/Nick_Lachey'
p148
aS'http://en.wikipedia.org/wiki/Marcia_Gay_Harden'
p149
aS'http://en.wikipedia.org/wiki/Clara_Blandick'
p150
aS'http://en.wikipedia.org/wiki/Sue_Hamilton_(model_and_actress)'
p151
aS'http://en.wikipedia.org/wiki/Peggy_Miley'
p152
aS'http://en.wikipedia.org/wiki/Aviva_(actress)'
p153
aS'http://en.wikipedia.org/wiki/Allison_Mack'
p154
aS'http://en.wikipedia.org/wiki/Anita_Barone'
p155
aS'http://en.wikipedia.org/wiki/Jessica_Campbell'
p156
aS'http://en.wikipedia.org/wiki/Lauren_Storm'
p157
aS'http://en.wikipedia.org/wiki/Haviland_Morris'
p158
aS'http://en.wikipedia.org/wiki/Margo_Martindale'
p159
aS'http://en.wikipedia.org/wiki/Tricia_O%27Kelley'
p160
aS'http://en.wikipedia.org/wiki/Beth_Toussaint'
p161
aS'http://en.wikipedia.org/wiki/Madolyn_Smith_Osborne'
p162
aS'http://en.wikipedia.org/wiki/Jane_Alexander'
p163
aS'http://en.wikipedia.org/wiki/Suzi_Lane'
p164
aS'http://en.wikipedia.org/wiki/Frances_Howard_(actress)'
p165
aS'http://en.wikipedia.org/wiki/Rebecca_Grant_(American_actress)'
p166
aS'http://en.wikipedia.org/wiki/Paula_Trueman'
p167
aS'http://en.wikipedia.org/wiki/Dianne_Wiest'
p168
aS'http://en.wikipedia.org/wiki/Erica_Gimpel'
p169
aS'http://en.wikipedia.org/wiki/Jamie_Brewer'
p170
aS'http://en.wikipedia.org/wiki/Sonja_Sohn'
p171
aS'http://en.wikipedia.org/wiki/Morgan_Brittany'
p172
aS'http://en.wikipedia.org/wiki/Leah_Jenner'
p173
aS'http://en.wikipedia.org/wiki/Mia_Cox'
p174
aS'http://en.wikipedia.org/wiki/Selena'
p175
aS'http://en.wikipedia.org/wiki/Erika_Flores'
p176
aS'http://en.wikipedia.org/wiki/India_Ennenga'
p177
aS'http://en.wikipedia.org/wiki/Lisa_Brenner'
p178
aS'http://en.wikipedia.org/wiki/Natalie_Zea'
p179
aS'http://en.wikipedia.org/wiki/Gertrude_Flynn'
p180
aS'http://en.wikipedia.org/wiki/Denise_Nicholas'
p181
aS'http://en.wikipedia.org/wiki/Tamara_Mark'
p182
aS'http://en.wikipedia.org/wiki/Jennifer_Siebel_Newsom'
p183
aS'http://en.wikipedia.org/wiki/Renae_Geerlings'
p184
aS'http://en.wikipedia.org/wiki/Rosanne_Katon'
p185
aS'http://en.wikipedia.org/wiki/Christa_B._Allen'
p186
aS'http://en.wikipedia.org/wiki/Rumer_Willis'
p187
aS'http://en.wikipedia.org/wiki/Ethel_Ayler'
p188
aS'http://en.wikipedia.org/wiki/Sumi_Haru'
p189
aS'http://en.wikipedia.org/wiki/Melanie_Paxson'
p190
aS'http://en.wikipedia.org/wiki/Ally_Sheedy'
p191
aS'http://en.wikipedia.org/wiki/Goldie_Hawn'
p192
aS'http://en.wikipedia.org/wiki/Joanna_Cassidy'
p193
aS'http://en.wikipedia.org/wiki/Moira_Kelly'
p194
aS'http://en.wikipedia.org/wiki/Michele_Morgan_(American_actress)'
p195
aS'http://en.wikipedia.org/wiki/Katherine_Bailess'
p196
aS'http://en.wikipedia.org/wiki/Debra_Paget'
p197
aS'http://en.wikipedia.org/wiki/Brina_Palencia'
p198
aS'http://en.wikipedia.org/wiki/Amanda_Brooks'
p199
aS'http://en.wikipedia.org/wiki/Jessica_Hecht'
p200
aS'http://en.wikipedia.org/wiki/Lance_Jordan'
p201
aS'http://en.wikipedia.org/wiki/Sandy_Rivera'
p202
aS'http://en.wikipedia.org/wiki/Donna_Summer'
p203
aS'http://en.wikipedia.org/wiki/Jana_Kramer'
p204
aS'http://en.wikipedia.org/wiki/Jane_Webb'
p205
aS'http://en.wikipedia.org/wiki/Natalie_Dreyfuss'
p206
aS'http://en.wikipedia.org/wiki/Cynthia_Pepper'
p207
aS'http://en.wikipedia.org/wiki/Marie_Shotwell'
p208
aS'http://en.wikipedia.org/wiki/Barbara_Feldon'
p209
aS'http://en.wikipedia.org/wiki/Tisha_Campbell-Martin'
p210
aS'http://en.wikipedia.org/wiki/Sonya_Eddy'
p211
aS'http://en.wikipedia.org/wiki/Stella_Maeve'
p212
aS'http://en.wikipedia.org/wiki/India_Summer'
p213
aS'http://en.wikipedia.org/wiki/Margaret_Morris_(actress)'
p214
aS'http://en.wikipedia.org/wiki/Vanessa_Hudgens'
p215
aS'http://en.wikipedia.org/wiki/Lynn-Holly_Johnson'
p216
aS'http://en.wikipedia.org/wiki/Natalie_Joy_Johnson'
p217
aS'http://en.wikipedia.org/wiki/Anne_Dudek'
p218
aS'http://en.wikipedia.org/wiki/Kelly_Overton_(actress)'
p219
aS'http://en.wikipedia.org/wiki/Hedy_Lamarr'
p220
aS'http://en.wikipedia.org/wiki/Elizabeth_MacRae'
p221
aS'http://en.wikipedia.org/wiki/Missy_Elliott'
p222
aS'http://en.wikipedia.org/wiki/Mary_Martin'
p223
aS'http://en.wikipedia.org/wiki/Marion_Ross'
p224
aS'http://en.wikipedia.org/wiki/Marlo_Dwyer'
p225
aS'http://en.wikipedia.org/wiki/Frances_Conroy'
p226
aS'http://en.wikipedia.org/wiki/Amy_Ferguson'
p227
aS'http://en.wikipedia.org/wiki/Louise_Dresser'
p228
aS'http://en.wikipedia.org/wiki/Lois_Collier'
p229
aS'http://en.wikipedia.org/wiki/Taylor_Cole'
p230
aS'http://en.wikipedia.org/wiki/Grace_Moore'
p231
aS'http://en.wikipedia.org/wiki/Sally_Rand'
p232
aS'http://en.wikipedia.org/wiki/Frances_McDormand'
p233
aS'http://en.wikipedia.org/wiki/Dee_Barnes'
p234
aS'http://en.wikipedia.org/wiki/Delia_Bogard'
p235
aS'http://en.wikipedia.org/wiki/Gladys_Brockwell'
p236
aS'http://en.wikipedia.org/wiki/Vera-Ellen'
p237
aS'http://en.wikipedia.org/wiki/Lorna_Gray'
p238
aS'http://en.wikipedia.org/wiki/Wendy_Kaplan'
p239
aS'http://en.wikipedia.org/wiki/Katherine_Helmond'
p240
aS'http://en.wikipedia.org/wiki/Pat_Musick'
p241
aS'http://en.wikipedia.org/wiki/Jeryl_Prescott'
p242
aS'http://en.wikipedia.org/wiki/Rita_Carewe'
p243
aS'http://en.wikipedia.org/wiki/Stephanie_Niznik'
p244
aS'http://en.wikipedia.org/wiki/Sheryl_Lee'
p245
aS'http://en.wikipedia.org/wiki/Shelley_Fabares'
p246
aS'http://en.wikipedia.org/wiki/Sally_Struthers'
p247
aS'http://en.wikipedia.org/wiki/Kim_Dickens'
p248
aS'http://en.wikipedia.org/wiki/Natasha_Leggero'
p249
aS'http://en.wikipedia.org/wiki/Flora_Cross'
p250
aS'http://en.wikipedia.org/wiki/Susan_Sarandon'
p251
aS'http://en.wikipedia.org/wiki/Joan_Dixon'
p252
aS'http://en.wikipedia.org/wiki/Lori_Singer'
p253
aS'http://en.wikipedia.org/wiki/Irene_Ng'
p254
aS'http://en.wikipedia.org/wiki/Rebecca_Hall'
p255
aS'http://en.wikipedia.org/wiki/Katherine_Walsh_(actress)'
p256
aS'http://en.wikipedia.org/wiki/Angela_Nicoletti'
p257
aS'http://en.wikipedia.org/wiki/Abigail_Spencer'
p258
aS'http://en.wikipedia.org/wiki/Sasha_Alexander'
p259
aS'http://en.wikipedia.org/wiki/Tammy_Lynn_Michaels'
p260
aS'http://en.wikipedia.org/wiki/Barbara_Lawrence'
p261
aS'http://en.wikipedia.org/wiki/Kim_Ostrenko'
p262
aS'http://en.wikipedia.org/wiki/Mamie_Gummer'
p263
aS'http://en.wikipedia.org/wiki/Emma_Caulfield'
p264
aS'http://en.wikipedia.org/wiki/Tamala_Jones'
p265
aS'http://en.wikipedia.org/wiki/Teri_Hatcher'
p266
aS'http://en.wikipedia.org/wiki/Concetta_Tomei'
p267
aS'http://en.wikipedia.org/wiki/Chip_Fields'
p268
aS'http://en.wikipedia.org/wiki/Jennifer_Esposito'
p269
aS'http://en.wikipedia.org/wiki/Erica_O%27Keith'
p270
aS'http://en.wikipedia.org/wiki/Shanna_Collins'
p271
aS'http://en.wikipedia.org/wiki/Peyton_List_(actress,_born_1986)'
p272
aS'http://en.wikipedia.org/wiki/Marie_McDonald'
p273
aS'http://en.wikipedia.org/wiki/Emily_Warfield'
p274
aS'http://en.wikipedia.org/wiki/Susan_Sullivan'
p275
aS'http://en.wikipedia.org/wiki/Tanjareen_Martin'
p276
aS'http://en.wikipedia.org/wiki/Maddie_Corman'
p277
aS'http://en.wikipedia.org/wiki/Leni_Stengel'
p278
aS'http://en.wikipedia.org/wiki/Trazana_Beverley'
p279
aS'http://en.wikipedia.org/wiki/Terry_Farrell_(actress)'
p280
aS'http://en.wikipedia.org/wiki/Byron_Stingily'
p281
aS'http://en.wikipedia.org/wiki/Kelli_Goss'
p282
aS'http://en.wikipedia.org/wiki/Clementine_Ford'
p283
aS'http://en.wikipedia.org/wiki/Meg_Chambers_Steedle'
p284
aS'http://en.wikipedia.org/wiki/Kim_Miyori'
p285
aS'http://en.wikipedia.org/wiki/Kirsten_Kemp'
p286
aS'http://en.wikipedia.org/wiki/Barbara_Bedford_(actress)'
p287
aS'http://en.wikipedia.org/wiki/Zelda_Rubinstein'
p288
aS'http://en.wikipedia.org/wiki/Lauren_Bittner'
p289
aS'http://en.wikipedia.org/wiki/Charlene_Tilton'
p290
aS'http://en.wikipedia.org/wiki/Ashley_Tisdale'
p291
aS'http://en.wikipedia.org/wiki/Vasiliki_Maliaros'
p292
aS'http://en.wikipedia.org/wiki/Vicki_Lawrence'
p293
aS'http://en.wikipedia.org/wiki/Lil_Louis'
p294
aS'http://en.wikipedia.org/wiki/Beverly_D%27Angelo'
p295
aS'http://en.wikipedia.org/wiki/Pearl_Eaton'
p296
aS'http://en.wikipedia.org/wiki/Leslie-Anne_Huff'
p297
aS'http://en.wikipedia.org/wiki/Christina_Robinson_(actress)'
p298
aS'http://en.wikipedia.org/wiki/Meredith_Baxter'
p299
aS'http://en.wikipedia.org/wiki/Sharmila_Devar'
p300
aS'http://en.wikipedia.org/wiki/Sarah_Prikryl'
p301
aS'http://en.wikipedia.org/wiki/Courtney_Halverson'
p302
aS'http://en.wikipedia.org/wiki/Ina_Balin'
p303
aS'http://en.wikipedia.org/wiki/Kathryn_Noble'
p304
aS'http://en.wikipedia.org/wiki/Odette_Annable'
p305
aS'http://en.wikipedia.org/wiki/Holly_Marie_Combs'
p306
aS'http://en.wikipedia.org/wiki/Shondrella_Avery'
p307
aS'http://en.wikipedia.org/wiki/Emily_Deschanel'
p308
aS'http://en.wikipedia.org/wiki/Michelle_Monaghan'
p309
aS'http://en.wikipedia.org/wiki/Jewel_(singer)'
p310
aS'http://en.wikipedia.org/wiki/Kathy_Ireland'
p311
aS'http://en.wikipedia.org/wiki/Tree_Carr'
p312
aS'http://en.wikipedia.org/wiki/Morena_Baccarin'
p313
aS'http://en.wikipedia.org/wiki/Brittney_Alger'
p314
aS'http://en.wikipedia.org/wiki/Bonnie_Hunt'
p315
aS'http://en.wikipedia.org/wiki/Ta-Tanisha'
p316
aS'http://en.wikipedia.org/wiki/Penelope_Windust'
p317
aS'http://en.wikipedia.org/wiki/Suzan_Brittan'
p318
aS'http://en.wikipedia.org/wiki/Kristina_Wagner'
p319
aS'http://en.wikipedia.org/wiki/Carole_Mathews'
p320
aS'http://en.wikipedia.org/wiki/Cher'
p321
aS'http://en.wikipedia.org/wiki/Lauren_Hutton'
p322
aS'http://en.wikipedia.org/wiki/Molly_Spotted_Elk'
p323
aS'http://en.wikipedia.org/wiki/Fala_Chen'
p324
aS'http://en.wikipedia.org/wiki/Delta_Burke'
p325
aS'http://en.wikipedia.org/wiki/Kim_Wayans'
p326
aS'http://en.wikipedia.org/wiki/Sarah_Burns'
p327
aS'http://en.wikipedia.org/wiki/Jammes_Luckett'
p328
aS'http://en.wikipedia.org/wiki/Bonnie_Pointer'
p329
aS'http://en.wikipedia.org/wiki/Mandy_Moore'
p330
aS'http://en.wikipedia.org/wiki/Victoria_Shaw_(actress)'
p331
aS'http://en.wikipedia.org/wiki/Jackie_Evancho'
p332
aS'http://en.wikipedia.org/wiki/Diora_Baird'
p333
aS'http://en.wikipedia.org/wiki/Daffney'
p334
aS'http://en.wikipedia.org/wiki/Ali_Wong'
p335
aS'http://en.wikipedia.org/wiki/Samira_Wiley'
p336
aS'http://en.wikipedia.org/wiki/Ashley_Greene'
p337
aS'http://en.wikipedia.org/wiki/Lisa_Guerrero'
p338
aS'http://en.wikipedia.org/wiki/Sandra_Dickinson'
p339
aS'http://en.wikipedia.org/wiki/Arielle_Jacobs'
p340
aS'http://en.wikipedia.org/wiki/Haley_Bennett'
p341
aS'http://en.wikipedia.org/wiki/AzMarie_Livingston'
p342
aS'http://en.wikipedia.org/wiki/Renee_Olstead'
p343
aS'http://en.wikipedia.org/wiki/Madeline_Carroll'
p344
aS'http://en.wikipedia.org/wiki/Joyce_Nizzari'
p345
aS'http://en.wikipedia.org/wiki/Ruthanna_Hopper'
p346
aS'http://en.wikipedia.org/wiki/Andrea_Howard'
p347
aS'http://en.wikipedia.org/wiki/Kate_Murtagh'
p348
aS'http://en.wikipedia.org/wiki/Julianne_Michelle'
p349
aS'http://en.wikipedia.org/wiki/Rosario_Dawson'
p350
aS'http://en.wikipedia.org/wiki/Erin_Hershey_Presley'
p351
aS'http://en.wikipedia.org/wiki/Julia_Sweeney'
p352
aS'http://en.wikipedia.org/wiki/Joey_King'
p353
aS'http://en.wikipedia.org/wiki/Spring_Byington'
p354
aS'http://en.wikipedia.org/wiki/Wanda_Sykes'
p355
aS'http://en.wikipedia.org/wiki/Lisa_Ann'
p356
aS'http://en.wikipedia.org/wiki/Louise_Fazenda'
p357
aS'http://en.wikipedia.org/wiki/Deborah_Tucker'
p358
aS'http://en.wikipedia.org/wiki/Pablo_Flores'
p359
aS'http://en.wikipedia.org/wiki/Angela_Stevens'
p360
aS'http://en.wikipedia.org/wiki/Alanis_Morissette'
p361
aS'http://en.wikipedia.org/wiki/Barbara_Bain'
p362
aS'http://en.wikipedia.org/wiki/Andrea_Bowen'
p363
aS'http://en.wikipedia.org/wiki/K_Callan'
p364
aS'http://en.wikipedia.org/wiki/Brittany_Murphy'
p365
aS'http://en.wikipedia.org/wiki/Anna_Chlumsky'
p366
aS'http://en.wikipedia.org/wiki/Jillian_Reynolds'
p367
aS'http://en.wikipedia.org/wiki/Julia_Roberts'
p368
aS'http://en.wikipedia.org/wiki/Fritzi_Brunette'
p369
aS'http://en.wikipedia.org/wiki/Takayo_Fischer'
p370
aS'http://en.wikipedia.org/wiki/Melissa_McCarthy'
p371
aS'http://en.wikipedia.org/wiki/Jeannine_Riley'
p372
aS'http://en.wikipedia.org/wiki/Amy_Halloran'
p373
aS'http://en.wikipedia.org/wiki/Erin_Lear'
p374
aS'http://en.wikipedia.org/wiki/Eileen_Herlie'
p375
aS'http://en.wikipedia.org/wiki/Regina_Taylor'
p376
aS'http://en.wikipedia.org/wiki/Hallie_Foote'
p377
aS'http://en.wikipedia.org/wiki/Yvonne_Craig'
p378
aS'http://en.wikipedia.org/wiki/Melody_Kay'
p379
aS'http://en.wikipedia.org/wiki/Candis_Cayne'
p380
aS'http://en.wikipedia.org/wiki/Haley_Gibby'
p381
aS'http://en.wikipedia.org/wiki/Molly_Sims'
p382
aS'http://en.wikipedia.org/wiki/Edith_Luckett_Davis'
p383
aS'http://en.wikipedia.org/wiki/Sally_Mayes'
p384
aS'http://en.wikipedia.org/wiki/Meghan_Markle'
p385
aS'http://en.wikipedia.org/wiki/Estelle_Evans'
p386
aS'http://en.wikipedia.org/wiki/Destiny_Lightsy'
p387
aS'http://en.wikipedia.org/wiki/Greta_Gerwig'
p388
aS'http://en.wikipedia.org/wiki/Mary_Pat_Gleason'
p389
aS'http://en.wikipedia.org/wiki/Ruth_Hart'
p390
aS'http://en.wikipedia.org/wiki/Marilyn_Martinez'
p391
aS'http://en.wikipedia.org/wiki/Charis_Michelsen'
p392
aS'http://en.wikipedia.org/wiki/Mary_Badham'
p393
aS'http://en.wikipedia.org/wiki/Colleen_Shannon'
p394
aS'http://en.wikipedia.org/wiki/Lorraine_Huling_Maynard'
p395
aS'http://en.wikipedia.org/wiki/Lorraine_Nicholson'
p396
aS'http://en.wikipedia.org/wiki/Alexis_Dziena'
p397
aS'http://en.wikipedia.org/wiki/Janel_Parrish'
p398
aS'http://en.wikipedia.org/wiki/Caprice_Benedetti'
p399
aS'http://en.wikipedia.org/wiki/Hope_Davis'
p400
aS'http://en.wikipedia.org/wiki/Amy_Jo_Johnson'
p401
aS'http://en.wikipedia.org/wiki/Victor_Calderone'
p402
aS'http://en.wikipedia.org/wiki/Willow_Smith'
p403
aS'http://en.wikipedia.org/wiki/Kerissa_Fare'
p404
aS'http://en.wikipedia.org/wiki/Natasha_Melnick'
p405
aS'http://en.wikipedia.org/wiki/Michele_Greene'
p406
aS'http://en.wikipedia.org/wiki/Amy_Irving'
p407
aS'http://en.wikipedia.org/wiki/Edwina_Booth'
p408
aS'http://en.wikipedia.org/wiki/Cody_Horn'
p409
aS'http://en.wikipedia.org/wiki/Summer_Phoenix'
p410
aS'http://en.wikipedia.org/wiki/Sharon_Farrell'
p411
aS'http://en.wikipedia.org/wiki/Jennifer_Holt'
p412
aS'http://en.wikipedia.org/wiki/Ann-Margret'
p413
aS'http://en.wikipedia.org/wiki/Olivia_Wilde'
p414
aS'http://en.wikipedia.org/wiki/Cynthia_Stevenson'
p415
aS'http://en.wikipedia.org/wiki/Neva_Gerber'
p416
aS'http://en.wikipedia.org/wiki/Betty_Bronson'
p417
aS'http://en.wikipedia.org/wiki/Victoria_Dillard'
p418
aS'http://en.wikipedia.org/wiki/Joan_Hotchkis'
p419
aS'http://en.wikipedia.org/wiki/Margo_Woode'
p420
aS'http://en.wikipedia.org/wiki/Michaela_Watkins'
p421
aS'http://en.wikipedia.org/wiki/Lorna_Luft'
p422
aS'http://en.wikipedia.org/wiki/Mia_Schaikewitz'
p423
aS'http://en.wikipedia.org/wiki/Elle_Fanning'
p424
aS'http://en.wikipedia.org/wiki/Hope_Lange'
p425
aS'http://en.wikipedia.org/wiki/Riley_Keough'
p426
aS'http://en.wikipedia.org/wiki/Suzanne_Friedline'
p427
aS'http://en.wikipedia.org/wiki/Terry_Finn'
p428
aS'http://en.wikipedia.org/wiki/Grace_Fulton'
p429
aS'http://en.wikipedia.org/wiki/Lynne_Roberts'
p430
aS'http://en.wikipedia.org/wiki/Constance_Bennett'
p431
aS'http://en.wikipedia.org/wiki/Nicole_Garza'
p432
aS'http://en.wikipedia.org/wiki/Cara_Mia_Wayans'
p433
aS'http://en.wikipedia.org/wiki/Claire_Danes'
p434
aS'http://en.wikipedia.org/wiki/Cheryl_Miller_(actress)'
p435
aS'http://en.wikipedia.org/wiki/Laurel_Page'
p436
aS'http://en.wikipedia.org/wiki/Iva_Shepard'
p437
aS'http://en.wikipedia.org/wiki/Joey_Lauren_Adams'
p438
aS'http://en.wikipedia.org/wiki/Nina_Arianda'
p439
aS'http://en.wikipedia.org/wiki/Frances_Raines'
p440
aS'http://en.wikipedia.org/wiki/Jill_Whelan'
p441
aS'http://en.wikipedia.org/wiki/Amelia_Campbell'
p442
aS'http://en.wikipedia.org/wiki/Vivian_Martin'
p443
aS'http://en.wikipedia.org/wiki/Cheryl_Barnes'
p444
aS'http://en.wikipedia.org/wiki/Elizabeth_Allen_(actress)'
p445
aS'http://en.wikipedia.org/wiki/Chelsea_Field'
p446
aS'http://en.wikipedia.org/wiki/Linda_Lavin'
p447
aS'http://en.wikipedia.org/wiki/Elinor_Donahue'
p448
aS'http://en.wikipedia.org/wiki/Natalie_Cole'
p449
aS'http://en.wikipedia.org/wiki/Valerie_Harper'
p450
aS'http://en.wikipedia.org/wiki/Ellary_Porterfield'
p451
aS'http://en.wikipedia.org/wiki/Patty_Duke'
p452
aS'http://en.wikipedia.org/wiki/Neriah_Davis'
p453
aS'http://en.wikipedia.org/wiki/Jane_Hamilton_(actress)'
p454
aS'http://en.wikipedia.org/wiki/Mimi_Michaels'
p455
aS'http://en.wikipedia.org/wiki/Stefanie_Powers'
p456
aS'http://en.wikipedia.org/wiki/Catherine_Keener'
p457
aS'http://en.wikipedia.org/wiki/Amber_Stevens'
p458
aS'http://en.wikipedia.org/wiki/Tara_Correa-McMullen'
p459
aS'http://en.wikipedia.org/wiki/Sara_Niemietz'
p460
aS'http://en.wikipedia.org/wiki/Jules_de_Jongh'
p461
aS'http://en.wikipedia.org/wiki/Jane_Seymour_(Canadian_actress)'
p462
aS'http://en.wikipedia.org/wiki/Mariska_Hargitay'
p463
aS'http://en.wikipedia.org/wiki/Abbie_Cobb'
p464
aS'http://en.wikipedia.org/wiki/Nikki_Griffin'
p465
aS'http://en.wikipedia.org/wiki/Maggie_McNamara'
p466
aS'http://en.wikipedia.org/wiki/Carrie_Fisher'
p467
aS'http://en.wikipedia.org/wiki/Evelyn_Rudie'
p468
aS'http://en.wikipedia.org/wiki/Mackenzie_Smith'
p469
aS'http://en.wikipedia.org/wiki/Dana_Wheeler-Nicholson'
p470
aS'http://en.wikipedia.org/wiki/Ma%27Niche'
p471
aS'http://en.wikipedia.org/wiki/Patricia_Clarkson'
p472
aS'http://en.wikipedia.org/wiki/Lissa_Lauria'
p473
aS'http://en.wikipedia.org/wiki/Meryl_Streep'
p474
aS'http://en.wikipedia.org/wiki/Jodie_Sweetin'
p475
aS'http://en.wikipedia.org/wiki/Lindsay_Sloane'
p476
aS'http://en.wikipedia.org/wiki/Jana_Thompson'
p477
aS'http://en.wikipedia.org/wiki/Janet_Carroll'
p478
aS'http://en.wikipedia.org/wiki/Karen_McDougal'
p479
aS'http://en.wikipedia.org/wiki/Carol_Kane'
p480
aS'http://en.wikipedia.org/wiki/Tina_Krause'
p481
aS'http://en.wikipedia.org/wiki/Taryn_Manning'
p482
aS'http://en.wikipedia.org/wiki/Carmel_Myers'
p483
aS'http://en.wikipedia.org/wiki/Hailey_Anne_Nelson'
p484
aS'http://en.wikipedia.org/wiki/Dolly_Parton'
p485
aS'http://en.wikipedia.org/wiki/Vivi_Pineda'
p486
aS'http://en.wikipedia.org/wiki/Kelly_Bishop'
p487
aS'http://en.wikipedia.org/wiki/Joyce_Van_Patten'
p488
aS'http://en.wikipedia.org/wiki/Brittany_Snow'
p489
aS'http://en.wikipedia.org/wiki/Lili_Simmons'
p490
aS'http://en.wikipedia.org/wiki/Phyllis_Frelich'
p491
aS'http://en.wikipedia.org/wiki/Amy_Poehler'
p492
aS'http://en.wikipedia.org/wiki/Theresa_Russell'
p493
aS'http://en.wikipedia.org/wiki/Amber_Lynn'
p494
aS'http://en.wikipedia.org/wiki/Melissa_Ponzio'
p495
aS'http://en.wikipedia.org/wiki/Ann_Magnuson'
p496
aS'http://en.wikipedia.org/wiki/Dana_Delany'
p497
aS'http://en.wikipedia.org/wiki/Jaime_Pressly'
p498
aS'http://en.wikipedia.org/wiki/Hope_Summers'
p499
aS'http://en.wikipedia.org/wiki/Brett_Butler_(actress)'
p500
aS'http://en.wikipedia.org/wiki/Bree_Turner'
p501
aS'http://en.wikipedia.org/wiki/Layla_Sarakalo'
p502
aS'http://en.wikipedia.org/wiki/Taylor_Atelian'
p503
aS'http://en.wikipedia.org/wiki/Jennifer_Tisdale'
p504
aS'http://en.wikipedia.org/wiki/Frances_Rich'
p505
aS'http://en.wikipedia.org/wiki/Laverne_Cox'
p506
aS'http://en.wikipedia.org/wiki/Tanaya_Henry'
p507
aS'http://en.wikipedia.org/wiki/Fiona_Hogan'
p508
aS'http://en.wikipedia.org/wiki/Jan_Hoag'
p509
aS'http://en.wikipedia.org/wiki/Alley_Mills'
p510
aS'http://en.wikipedia.org/wiki/Alice_Nunn'
p511
aS'http://en.wikipedia.org/wiki/Summer_Bishil'
p512
aS'http://en.wikipedia.org/wiki/Larissa_Drekonja'
p513
aS'http://en.wikipedia.org/wiki/Gloria_Stuart'
p514
aS'http://en.wikipedia.org/wiki/Ellen_Albertini_Dow'
p515
aS'http://en.wikipedia.org/wiki/Lily_Tomlin'
p516
aS'http://en.wikipedia.org/wiki/Stacey_Dash'
p517
aS'http://en.wikipedia.org/wiki/Tina_Chen'
p518
aS'http://en.wikipedia.org/wiki/Tracy_Hutson'
p519
aS'http://en.wikipedia.org/wiki/Stefania_Barr'
p520
aS'http://en.wikipedia.org/wiki/Natalie_Lander'
p521
aS'http://en.wikipedia.org/wiki/Lillian_Leighton'
p522
aS'http://en.wikipedia.org/wiki/Kerry_Bish%C3%A9'
p523
aS'http://en.wikipedia.org/wiki/Mischa_Barton'
p524
aS'http://en.wikipedia.org/wiki/Robert_Hood'
p525
aS'http://en.wikipedia.org/wiki/Tristine_Skyler'
p526
aS'http://en.wikipedia.org/wiki/Sarah_Hagan'
p527
aS'http://en.wikipedia.org/wiki/Monica_Calhoun'
p528
aS'http://en.wikipedia.org/wiki/Bianca_Lawson'
p529
aS'http://en.wikipedia.org/wiki/Laura_Koffman'
p530
aS'http://en.wikipedia.org/wiki/Susan_Morrow'
p531
aS'http://en.wikipedia.org/wiki/Staci_Keanan'
p532
aS'http://en.wikipedia.org/wiki/Celeste_Thorson'
p533
aS'http://en.wikipedia.org/wiki/Mary_Stuart_Masterson'
p534
aS'http://en.wikipedia.org/wiki/Evelyn_%22Champagne%22_King'
p535
aS'http://en.wikipedia.org/wiki/Maxine_Stuart'
p536
aS'http://en.wikipedia.org/wiki/Maysoon_Zayid'
p537
aS'http://en.wikipedia.org/wiki/Erin_Cummings'
p538
aS'http://en.wikipedia.org/wiki/Kat_Coiro'
p539
aS'http://en.wikipedia.org/wiki/Venus_DeMilo'
p540
aS'http://en.wikipedia.org/wiki/Jean_Howard'
p541
aS'http://en.wikipedia.org/wiki/Gladys_McConnell'
p542
aS'http://en.wikipedia.org/wiki/Suzanna_Love'
p543
aS'http://en.wikipedia.org/wiki/Rosalie_Ward'
p544
aS'http://en.wikipedia.org/wiki/Kimberly_Hester'
p545
aS'http://en.wikipedia.org/wiki/Dorothy_Hyson'
p546
aS'http://en.wikipedia.org/wiki/Courtney_Love'
p547
aS'http://en.wikipedia.org/wiki/Alexandria_Karlsen'
p548
aS'http://en.wikipedia.org/wiki/Beau_Garrett'
p549
aS'http://en.wikipedia.org/wiki/Moira_Harris'
p550
aS'http://en.wikipedia.org/wiki/Collette_Wolfe'
p551
aS'http://en.wikipedia.org/wiki/Dyan_Cannon'
p552
aS'http://en.wikipedia.org/wiki/M%C3%BDa'
p553
aS'http://en.wikipedia.org/wiki/Tika_Sumpter'
p554
aS'http://en.wikipedia.org/wiki/Belinda_Carlisle'
p555
aS'http://en.wikipedia.org/wiki/Anna_Faris'
p556
aS'http://en.wikipedia.org/wiki/Samantha_Logan'
p557
aS'http://en.wikipedia.org/wiki/Jenny_Slate'
p558
aS'http://en.wikipedia.org/wiki/Paul_Parker_(singer)'
p559
aS'http://en.wikipedia.org/wiki/Steven_Greenberg_(musician)'
p560
aS'http://en.wikipedia.org/wiki/Inez_Palange'
p561
aS'http://en.wikipedia.org/wiki/Sue_Lyon'
p562
aS'http://en.wikipedia.org/wiki/Erinn_Hayes'
p563
aS'http://en.wikipedia.org/wiki/Crystal_Celeste_Grant'
p564
aS'http://en.wikipedia.org/wiki/Isabelle_Fuhrman'
p565
aS'http://en.wikipedia.org/wiki/Jill_Dennett'
p566
aS'http://en.wikipedia.org/wiki/Pamela_Anderson'
p567
aS'http://en.wikipedia.org/wiki/Lisa_Michaelis'
p568
aS'http://en.wikipedia.org/wiki/Cindy_Crawford'
p569
aS'http://en.wikipedia.org/wiki/Pepper_Binkley'
p570
aS'http://en.wikipedia.org/wiki/DJ_Ricardo!'
p571
aS'http://en.wikipedia.org/wiki/Lindsay_Parker'
p572
aS'http://en.wikipedia.org/wiki/Jordan_Carver'
p573
aS'http://en.wikipedia.org/wiki/Jane_Novak'
p574
aS'http://en.wikipedia.org/wiki/Lydia_Cornell'
p575
aS'http://en.wikipedia.org/wiki/Kelsey_Chow'
p576
aS'http://en.wikipedia.org/wiki/Meta_Golding'
p577
aS'http://en.wikipedia.org/wiki/Poni_Adams'
p578
aS'http://en.wikipedia.org/wiki/Gloria_Foster'
p579
aS'http://en.wikipedia.org/wiki/Lana_Clarkson'
p580
aS'http://en.wikipedia.org/wiki/Rooney_Mara'
p581
aS'http://en.wikipedia.org/wiki/Jennifer_Carpenter'
p582
aS'http://en.wikipedia.org/wiki/Carol_Burnett'
p583
aS'http://en.wikipedia.org/wiki/Melissa_Sue_Anderson'
p584
aS'http://en.wikipedia.org/wiki/Helen_Shipman'
p585
aS'http://en.wikipedia.org/wiki/Sasha_Pieterse'
p586
aS'http://en.wikipedia.org/wiki/John_Benitez'
p587
aS'http://en.wikipedia.org/wiki/Debrah_Farentino'
p588
aS'http://en.wikipedia.org/wiki/Caitlin_Crosby'
p589
aS'http://en.wikipedia.org/wiki/Jennifer_Syme'
p590
aS'http://en.wikipedia.org/wiki/Lauren_Jelencovich'
p591
aS'http://en.wikipedia.org/wiki/Lindsay_Felton'
p592
aS'http://en.wikipedia.org/wiki/Kieu_Chinh'
p593
aS'http://en.wikipedia.org/wiki/Laraine_Day'
p594
aS'http://en.wikipedia.org/wiki/Gloria_Lloyd'
p595
aS'http://en.wikipedia.org/wiki/Mae_Marsh'
p596
aS'http://en.wikipedia.org/wiki/Louanne_Sirota'
p597
aS'http://en.wikipedia.org/wiki/Gina_Gershon'
p598
aS'http://en.wikipedia.org/wiki/Kaleena_Kiff'
p599
aS'http://en.wikipedia.org/wiki/Justina_Machado'
p600
aS'http://en.wikipedia.org/wiki/Natasha_Yi'
p601
aS'http://en.wikipedia.org/wiki/Kathryn_Kates'
p602
aS'http://en.wikipedia.org/wiki/Elise_Cavanna'
p603
aS'http://en.wikipedia.org/wiki/Ruth_Terry'
p604
aS'http://en.wikipedia.org/wiki/Margalo_Gillmore'
p605
aS'http://en.wikipedia.org/wiki/Joanna_Stingray'
p606
aS'http://en.wikipedia.org/wiki/Maggie_Elizabeth_Jones'
p607
aS'http://en.wikipedia.org/wiki/Lori_Beth_Denberg'
p608
aS'http://en.wikipedia.org/wiki/Rosamond_Pinchot'
p609
aS'http://en.wikipedia.org/wiki/Gilda_Gray'
p610
aS'http://en.wikipedia.org/wiki/Linda_Blair'
p611
aS'http://en.wikipedia.org/wiki/Ali_Cobrin'
p612
aS'http://en.wikipedia.org/wiki/Elizabeth_Ann_Bennett'
p613
aS'http://en.wikipedia.org/wiki/Kerri_Randles'
p614
aS'http://en.wikipedia.org/wiki/Susan_Ruttan'
p615
aS'http://en.wikipedia.org/wiki/Lauren_Walsh'
p616
aS'http://en.wikipedia.org/wiki/Kaitlin_Doubleday'
p617
aS'http://en.wikipedia.org/wiki/Julie_Adams'
p618
aS'http://en.wikipedia.org/wiki/Laura_Dean_(actress)'
p619
aS'http://en.wikipedia.org/wiki/Belle_Montrose'
p620
aS'http://en.wikipedia.org/wiki/Auti_Angel'
p621
aS'http://en.wikipedia.org/wiki/Kim_Greist'
p622
aS'http://en.wikipedia.org/wiki/Cassi_Thomson'
p623
aS'http://en.wikipedia.org/wiki/Anita_Louise'
p624
aS'http://en.wikipedia.org/wiki/C.J._Perry'
p625
aS'http://en.wikipedia.org/wiki/Fanny_Midgley'
p626
aS'http://en.wikipedia.org/wiki/Judy_Nugent'
p627
aS'http://en.wikipedia.org/wiki/Dey_Young'
p628
aS'http://en.wikipedia.org/wiki/Meredith_Patterson'
p629
aS'http://en.wikipedia.org/wiki/Abby_Dalton'
p630
aS'http://en.wikipedia.org/wiki/Marissa_Jaret_Winokur'
p631
aS'http://en.wikipedia.org/wiki/Lauren_Francesca'
p632
aS'http://en.wikipedia.org/wiki/Novella_Nelson'
p633
aS'http://en.wikipedia.org/wiki/Kimberly_Elise'
p634
aS'http://en.wikipedia.org/wiki/Patience_Cleveland'
p635
aS'http://en.wikipedia.org/wiki/Martha_Gehman'
p636
aS'http://en.wikipedia.org/wiki/Bijou_Phillips'
p637
aS'http://en.wikipedia.org/wiki/Nika_Futterman'
p638
aS'http://en.wikipedia.org/wiki/Vanessa_Brown'
p639
aS'http://en.wikipedia.org/wiki/Anne_Sargent'
p640
aS'http://en.wikipedia.org/wiki/Alexandra_Picatto'
p641
aS'http://en.wikipedia.org/wiki/Laura_Harring'
p642
aS'http://en.wikipedia.org/wiki/Carole_Cook'
p643
aS'http://en.wikipedia.org/wiki/Megan_Ketch'
p644
aS'http://en.wikipedia.org/wiki/Billie_Seward'
p645
aS'http://en.wikipedia.org/wiki/Rose_McGowan'
p646
aS'http://en.wikipedia.org/wiki/Colleen_Camp'
p647
aS'http://en.wikipedia.org/wiki/Rose_Marie'
p648
aS'http://en.wikipedia.org/wiki/Walter_Kahn'
p649
aS'http://en.wikipedia.org/wiki/Dot_Jones'
p650
aS'http://en.wikipedia.org/wiki/Sunny_Harnett'
p651
aS'http://en.wikipedia.org/wiki/Libby_Holman'
p652
aS'http://en.wikipedia.org/wiki/Jordana_Brewster'
p653
aS'http://en.wikipedia.org/wiki/Susan_Browning'
p654
aS'http://en.wikipedia.org/wiki/Shannen_Doherty'
p655
aS'http://en.wikipedia.org/wiki/Danielle_Hoover'
p656
aS'http://en.wikipedia.org/wiki/Sandy_Fox'
p657
aS'http://en.wikipedia.org/wiki/Yvonne_Perry'
p658
aS'http://en.wikipedia.org/wiki/Tamara_Jenkins'
p659
aS'http://en.wikipedia.org/wiki/Christina_Vidal'
p660
aS'http://en.wikipedia.org/wiki/Laurene_Landon'
p661
aS'http://en.wikipedia.org/wiki/Kate_Mara'
p662
aS'http://en.wikipedia.org/wiki/Melanie_Kannokada'
p663
aS'http://en.wikipedia.org/wiki/Debbie_Gravitte'
p664
aS'http://en.wikipedia.org/wiki/Sarah_Holcomb'
p665
aS'http://en.wikipedia.org/wiki/Alice_Lake'
p666
aS'http://en.wikipedia.org/wiki/Blanche_Baker'
p667
aS'http://en.wikipedia.org/wiki/Keedy'
p668
aS'http://en.wikipedia.org/wiki/Anna_Q._Nilsson'
p669
aS'http://en.wikipedia.org/wiki/Jane_A._Rogers'
p670
aS'http://en.wikipedia.org/wiki/KaDee_Strickland'
p671
aS'http://en.wikipedia.org/wiki/Darlene_Conley'
p672
aS'http://en.wikipedia.org/wiki/Charisma_Carpenter'
p673
aS'http://en.wikipedia.org/wiki/Lucille_Ward'
p674
aS'http://en.wikipedia.org/wiki/Dorothy_Tree'
p675
aS'http://en.wikipedia.org/wiki/Caitlin_Mowrey'
p676
aS'http://en.wikipedia.org/wiki/Cheryl_Hines'
p677
aS'http://en.wikipedia.org/wiki/Betta_St._John'
p678
aS'http://en.wikipedia.org/wiki/Gracie_Bea_Lawrence'
p679
aS'http://en.wikipedia.org/wiki/Kirsten_Dunst'
p680
aS'http://en.wikipedia.org/wiki/Lauren_Bacall'
p681
aS'http://en.wikipedia.org/wiki/Olive_Carey'
p682
aS'http://en.wikipedia.org/wiki/Gwyneth_Paltrow'
p683
aS'http://en.wikipedia.org/wiki/Marlo_Thomas'
p684
aS'http://en.wikipedia.org/wiki/Hilary_Swank'
p685
aS'http://en.wikipedia.org/wiki/Vera_Farmiga'
p686
aS'http://en.wikipedia.org/wiki/Billie_Bennett'
p687
aS'http://en.wikipedia.org/wiki/Diahann_Carroll'
p688
aS'http://en.wikipedia.org/wiki/Alaina_Reed_Hall'
p689
aS'http://en.wikipedia.org/wiki/Kathryn_Graf'
p690
aS'http://en.wikipedia.org/wiki/Vicki_Lewis'
p691
aS'http://en.wikipedia.org/wiki/Davetta_Sherwood'
p692
aS'http://en.wikipedia.org/wiki/Mandy_Rain'
p693
aS'http://en.wikipedia.org/wiki/Lindsay_Lohan'
p694
aS'http://en.wikipedia.org/wiki/Marianne_Leone_Cooper'
p695
aS'http://en.wikipedia.org/wiki/Bobbi_Jordan'
p696
aS'http://en.wikipedia.org/wiki/Paola_Andino'
p697
aS'http://en.wikipedia.org/wiki/Ynez_Seabury'
p698
aS'http://en.wikipedia.org/wiki/Elle_Madison'
p699
aS'http://en.wikipedia.org/wiki/Alicia_Silverstone'
p700
aS'http://en.wikipedia.org/wiki/Jill_Clayburgh'
p701
aS'http://en.wikipedia.org/wiki/Kay_Heberle'
p702
aS'http://en.wikipedia.org/wiki/Ren%C3%A9e_Jones'
p703
aS'http://en.wikipedia.org/wiki/AnnaSophia_Robb'
p704
aS'http://en.wikipedia.org/wiki/Alexandra_Cheron'
p705
aS'http://en.wikipedia.org/wiki/Heather_Burns'
p706
aS'http://en.wikipedia.org/wiki/Sally_Kirkland'
p707
aS'http://en.wikipedia.org/wiki/Blake_Lindsley'
p708
aS'http://en.wikipedia.org/wiki/Tami_Stronach'
p709
aS'http://en.wikipedia.org/wiki/Amy_Seimetz'
p710
aS'http://en.wikipedia.org/wiki/Gabrielle_Carteris'
p711
aS'http://en.wikipedia.org/wiki/Priscilla_Dean'
p712
aS'http://en.wikipedia.org/wiki/Jennifer_Freeman'
p713
aS'http://en.wikipedia.org/wiki/Megan_Dodds'
p714
aS'http://en.wikipedia.org/wiki/Miriam_Flynn'
p715
aS'http://en.wikipedia.org/wiki/Logan_Browning'
p716
aS'http://en.wikipedia.org/wiki/Alicia_Minshew'
p717
aS'http://en.wikipedia.org/wiki/Lainie_Kazan'
p718
aS'http://en.wikipedia.org/wiki/Kaycee_Stroh'
p719
aS'http://en.wikipedia.org/wiki/Katherine_Heigl'
p720
aS'http://en.wikipedia.org/wiki/Louise_Stanley'
p721
aS'http://en.wikipedia.org/wiki/Jane_Lynch'
p722
aS'http://en.wikipedia.org/wiki/Diane_McBain'
p723
aS'http://en.wikipedia.org/wiki/Cloris_Leachman'
p724
aS'http://en.wikipedia.org/wiki/Suzy_Chaffee'
p725
aS'http://en.wikipedia.org/wiki/Sara_Tanaka'
p726
aS'http://en.wikipedia.org/wiki/Keri_Lynn_Pratt'
p727
aS'http://en.wikipedia.org/wiki/Stephanie_Mills'
p728
aS'http://en.wikipedia.org/wiki/Lois_Nettleton'
p729
aS'http://en.wikipedia.org/wiki/Rini_Bell'
p730
aS'http://en.wikipedia.org/wiki/Poppy_Montgomery'
p731
aS'http://en.wikipedia.org/wiki/Elizabeth_Daily'
p732
aS'http://en.wikipedia.org/wiki/Heather_Ankeny'
p733
aS'http://en.wikipedia.org/wiki/Alexandra_Holden'
p734
aS'http://en.wikipedia.org/wiki/Kathy_Griffin'
p735
aS'http://en.wikipedia.org/wiki/Ann_Blyth'
p736
aS'http://en.wikipedia.org/wiki/Lee_Grant'
p737
aS'http://en.wikipedia.org/wiki/Mary_Pickford'
p738
aS'http://en.wikipedia.org/wiki/Bunny_Gibson'
p739
aS'http://en.wikipedia.org/wiki/Lillian_Lux'
p740
aS'http://en.wikipedia.org/wiki/Courtney_Thorne-Smith'
p741
aS'http://en.wikipedia.org/wiki/Heather_Matarazzo'
p742
aS'http://en.wikipedia.org/wiki/Frankie_Shaw'
p743
aS'http://en.wikipedia.org/wiki/Elaine_Barrie'
p744
aS'http://en.wikipedia.org/wiki/Wanda_De_Jesus'
p745
aS'http://en.wikipedia.org/wiki/Meg_Tilly'
p746
aS'http://en.wikipedia.org/wiki/Christine_Healy'
p747
aS'http://en.wikipedia.org/wiki/Veronica_Porsche_Ali'
p748
aS'http://en.wikipedia.org/wiki/Jessica_Szohr'
p749
aS'http://en.wikipedia.org/wiki/Wendy_Calio'
p750
aS'http://en.wikipedia.org/wiki/Rosa_Salazar'
p751
aS'http://en.wikipedia.org/wiki/Sofia_Black_D%27Elia'
p752
aS'http://en.wikipedia.org/wiki/Molly_Burnett'
p753
aS'http://en.wikipedia.org/wiki/Ethel_Clayton'
p754
aS'http://en.wikipedia.org/wiki/Ivana_Mili%C4%8Devi%C4%87'
p755
aS'http://en.wikipedia.org/wiki/Crystal_McKellar'
p756
aS'http://en.wikipedia.org/wiki/Rachel_Dratch'
p757
aS'http://en.wikipedia.org/wiki/Beverley_Owen'
p758
aS'http://en.wikipedia.org/wiki/Evelyn_Finley'
p759
aS'http://en.wikipedia.org/wiki/Cynthia_Harris'
p760
aS'http://en.wikipedia.org/wiki/Debbie_Gibson'
p761
aS'http://en.wikipedia.org/wiki/Amy_Van_Nostrand'
p762
aS'http://en.wikipedia.org/wiki/Kenya_Moore'
p763
aS'http://en.wikipedia.org/wiki/Judith_Hoag'
p764
aS'http://en.wikipedia.org/wiki/Melissa_Fitzgerald'
p765
aS'http://en.wikipedia.org/wiki/Amanda_Righetti'
p766
aS'http://en.wikipedia.org/wiki/Lina_Santiago'
p767
aS'http://en.wikipedia.org/wiki/Marj_Dusay'
p768
aS'http://en.wikipedia.org/wiki/Audrey_Chapman'
p769
aS'http://en.wikipedia.org/wiki/Helen_Raymond'
p770
aS'http://en.wikipedia.org/wiki/Kelly_Vitz'
p771
aS'http://en.wikipedia.org/wiki/Jennifer_Aniston'
p772
aS'http://en.wikipedia.org/wiki/India_Scandrick'
p773
aS'http://en.wikipedia.org/wiki/Calista_Flockhart'
p774
aS'http://en.wikipedia.org/wiki/Julia_Rose'
p775
aS'http://en.wikipedia.org/wiki/Malese_Jow'
p776
aS'http://en.wikipedia.org/wiki/Sara_Erikson'
p777
aS'http://en.wikipedia.org/wiki/Keiko_Agena'
p778
aS'http://en.wikipedia.org/wiki/Jamie_Rose'
p779
aS'http://en.wikipedia.org/wiki/Constance_Shulman'
p780
aS'http://en.wikipedia.org/wiki/Eileen_Chesis'
p781
aS'http://en.wikipedia.org/wiki/Ren%C3%A9e_Estevez'
p782
aS'http://en.wikipedia.org/wiki/Tilly_Losch'
p783
aS'http://en.wikipedia.org/wiki/Jennifer_Gatti'
p784
aS'http://en.wikipedia.org/wiki/Taryn_Southern'
p785
aS'http://en.wikipedia.org/wiki/Jack%C3%A9e_Harry'
p786
aS'http://en.wikipedia.org/wiki/Cherami_Leigh'
p787
aS'http://en.wikipedia.org/wiki/Dolores_Duffy'
p788
aS'http://en.wikipedia.org/wiki/Kitty_Carlisle'
p789
aS'http://en.wikipedia.org/wiki/Kari_Nissena'
p790
aS'http://en.wikipedia.org/wiki/Christine_Ebersole'
p791
aS'http://en.wikipedia.org/wiki/Brianna_Brown'
p792
aS'http://en.wikipedia.org/wiki/Cierra_Ramirez'
p793
aS'http://en.wikipedia.org/wiki/Kay_Hughes'
p794
aS'http://en.wikipedia.org/wiki/Ja%27net_Dubois'
p795
aS'http://en.wikipedia.org/wiki/Louise_Caire_Clark'
p796
aS'http://en.wikipedia.org/wiki/Emily_Meade'
p797
aS'http://en.wikipedia.org/wiki/Maggie_Wheeler'
p798
aS'http://en.wikipedia.org/wiki/Vivien_Cardone'
p799
aS'http://en.wikipedia.org/wiki/Juliet_Landau'
p800
aS'http://en.wikipedia.org/wiki/Abigail_Breslin'
p801
aS'http://en.wikipedia.org/wiki/Penny_Drake'
p802
aS'http://en.wikipedia.org/wiki/Mary_Jo_Deschanel'
p803
aS'http://en.wikipedia.org/wiki/Victoria_Principal'
p804
aS'http://en.wikipedia.org/wiki/Fairuza_Balk'
p805
aS'http://en.wikipedia.org/wiki/Sosie_Bacon'
p806
aS'http://en.wikipedia.org/wiki/Adele_Farrington'
p807
aS'http://en.wikipedia.org/wiki/Sharon_Case'
p808
aS'http://en.wikipedia.org/wiki/Dakota_Johnson'
p809
aS'http://en.wikipedia.org/wiki/Paige_Turco'
p810
aS'http://en.wikipedia.org/wiki/Marilyn_Chambers'
p811
aS'http://en.wikipedia.org/wiki/Tracy_Nelson_(actress)'
p812
aS'http://en.wikipedia.org/wiki/Jodi_Thelen'
p813
aS'http://en.wikipedia.org/wiki/Q%27orianka_Kilcher'
p814
aS'http://en.wikipedia.org/wiki/Beverley_Mitchell'
p815
aS'http://en.wikipedia.org/wiki/Milana_Vayntrub'
p816
aS'http://en.wikipedia.org/wiki/Dana_Fuchs'
p817
aS'http://en.wikipedia.org/wiki/Elinor_Fair'
p818
aS'http://en.wikipedia.org/wiki/Brooke_Shields'
p819
aS'http://en.wikipedia.org/wiki/Molly_Picon'
p820
aS'http://en.wikipedia.org/wiki/Peggy_McCay'
p821
aS'http://en.wikipedia.org/wiki/Courtnee_Draper'
p822
aS'http://en.wikipedia.org/wiki/Meg_Wyllie'
p823
aS'http://en.wikipedia.org/wiki/Linda_Hopper'
p824
aS'http://en.wikipedia.org/wiki/Stacie_Chan'
p825
aS'http://en.wikipedia.org/wiki/Eliza_Coupe'
p826
aS'http://en.wikipedia.org/wiki/Lesley_Ann_Warren'
p827
aS'http://en.wikipedia.org/wiki/Artemis_Pebdani'
p828
aS'http://en.wikipedia.org/wiki/Debra_Laws'
p829
aS'http://en.wikipedia.org/wiki/Tiffany_Thornton'
p830
aS'http://en.wikipedia.org/wiki/Rachel_True'
p831
aS'http://en.wikipedia.org/wiki/Dove_Cameron'
p832
aS'http://en.wikipedia.org/wiki/Jessica_Wesson'
p833
aS'http://en.wikipedia.org/wiki/Jurnee_Smollett'
p834
aS'http://en.wikipedia.org/wiki/Brooke_Burke'
p835
aS'http://en.wikipedia.org/wiki/Judy_Garland'
p836
aS'http://en.wikipedia.org/wiki/Irene_Hervey'
p837
aS'http://en.wikipedia.org/wiki/Movita_Castaneda'
p838
aS'http://en.wikipedia.org/wiki/Casey_Johnson'
p839
aS'http://en.wikipedia.org/wiki/Teri_Shields'
p840
aS'http://en.wikipedia.org/wiki/Ryan_Starr'
p841
aS'http://en.wikipedia.org/wiki/Janeane_Garofalo'
p842
aS'http://en.wikipedia.org/wiki/Kathleen_Wilhoite'
p843
aS'http://en.wikipedia.org/wiki/Gretchen_Mol'
p844
aS'http://en.wikipedia.org/wiki/Nicole_Randall_Johnson'
p845
aS'http://en.wikipedia.org/wiki/Nicole_Kidman'
p846
aS'http://en.wikipedia.org/wiki/Tichina_Arnold'
p847
aS'http://en.wikipedia.org/wiki/Maggie_Lawson'
p848
aS'http://en.wikipedia.org/wiki/Kristin_Hogan'
p849
aS'http://en.wikipedia.org/wiki/Frankie_McCoy'
p850
aS'http://en.wikipedia.org/wiki/Jane_Morgan'
p851
aS'http://en.wikipedia.org/wiki/Brenda_Vaccaro'
p852
aS'http://en.wikipedia.org/wiki/JC_Chasez'
p853
aS'http://en.wikipedia.org/wiki/Jessica_Lu'
p854
aS'http://en.wikipedia.org/wiki/Bonnie_MacBird'
p855
aS'http://en.wikipedia.org/wiki/Heather_Locklear'
p856
aS'http://en.wikipedia.org/wiki/Jennifer_Hudson'
p857
aS'http://en.wikipedia.org/wiki/Barbara_Rhoades'
p858
aS'http://en.wikipedia.org/wiki/Mike_Rizzo'
p859
aS'http://en.wikipedia.org/wiki/Lucy_Cotton'
p860
aS'http://en.wikipedia.org/wiki/Cozi_Zuehlsdorff'
p861
aS'http://en.wikipedia.org/wiki/Susanna_Hoffs'
p862
aS'http://en.wikipedia.org/wiki/Conni_Marie_Brazelton'
p863
aS'http://en.wikipedia.org/wiki/Beth_Fowler'
p864
aS'http://en.wikipedia.org/wiki/Laura_Bell_Bundy'
p865
aS'http://en.wikipedia.org/wiki/Laura_Breckenridge'
p866
aS'http://en.wikipedia.org/wiki/Jessica_Friedman'
p867
aS'http://en.wikipedia.org/wiki/Julie_Strain'
p868
aS'http://en.wikipedia.org/wiki/Shamika_Cotton'
p869
aS'http://en.wikipedia.org/wiki/Hunter_King'
p870
aS'http://en.wikipedia.org/wiki/Traci_Lords'
p871
aS'http://en.wikipedia.org/wiki/Garcelle_Beauvais'
p872
aS'http://en.wikipedia.org/wiki/Michelle_Federer'
p873
aS'http://en.wikipedia.org/wiki/Elizabeth_McGovern'
p874
aS'http://en.wikipedia.org/wiki/Glesca_Marshall'
p875
aS'http://en.wikipedia.org/wiki/Kathy_Rose'
p876
aS'http://en.wikipedia.org/wiki/Ava_Fabian'
p877
aS'http://en.wikipedia.org/wiki/Sara_Adler'
p878
aS'http://en.wikipedia.org/wiki/Mariah_Carey'
p879
aS'http://en.wikipedia.org/wiki/Zoe_Rae'
p880
aS'http://en.wikipedia.org/wiki/Natalie_Portman'
p881
aS'http://en.wikipedia.org/wiki/Danitza_Kingsley'
p882
aS'http://en.wikipedia.org/wiki/Elizabeth_Ho'
p883
aS'http://en.wikipedia.org/wiki/Tessa_Ludwick'
p884
aS'http://en.wikipedia.org/wiki/Caroline_D%27Amore'
p885
aS'http://en.wikipedia.org/wiki/Penny_Bae_Bridges'
p886
aS'http://en.wikipedia.org/wiki/Makenzie_Vega'
p887
aS'http://en.wikipedia.org/wiki/Alexandra_Breckenridge'
p888
aS'http://en.wikipedia.org/wiki/Shanna_Moakler'
p889
aS'http://en.wikipedia.org/wiki/Mekenna_Melvin'
p890
aS'http://en.wikipedia.org/wiki/Alicia_Keys'
p891
aS'http://en.wikipedia.org/wiki/Heather_Graham'
p892
aS'http://en.wikipedia.org/wiki/Mary_Beth_Hurt'
p893
aS'http://en.wikipedia.org/wiki/Loraine_V%C3%A9lez'
p894
aS'http://en.wikipedia.org/wiki/Chrishell_Stause'
p895
aS'http://en.wikipedia.org/wiki/Ellen_Burstyn'
p896
aS'http://en.wikipedia.org/wiki/Vitamin_C_(singer)'
p897
aS'http://en.wikipedia.org/wiki/Antonia_Rey'
p898
aS'http://en.wikipedia.org/wiki/Kimberly_Beck'
p899
aS'http://en.wikipedia.org/wiki/Rachel_Ames'
p900
aS'http://en.wikipedia.org/wiki/Larisa_Oleynik'
p901
aS'http://en.wikipedia.org/wiki/Buff_Cobb'
p902
aS'http://en.wikipedia.org/wiki/Katrina_Parker'
p903
aS'http://en.wikipedia.org/wiki/Marge_Kotlisky'
p904
aS'http://en.wikipedia.org/wiki/Katie_Leclerc'
p905
aS'http://en.wikipedia.org/wiki/Iliza_Shlesinger'
p906
aS'http://en.wikipedia.org/wiki/Leland_Palmer_(actress)'
p907
aS'http://en.wikipedia.org/wiki/Constance_McCashin'
p908
aS'http://en.wikipedia.org/wiki/Jamie_Anne_Allman'
p909
aS'http://en.wikipedia.org/wiki/Melinda_Dillon'
p910
aS'http://en.wikipedia.org/wiki/Marguerite_Moreau'
p911
aS'http://en.wikipedia.org/wiki/Harriet_Sansom_Harris'
p912
aS'http://en.wikipedia.org/wiki/Helen_Martin'
p913
aS'http://en.wikipedia.org/wiki/Sara_Ramirez'
p914
aS'http://en.wikipedia.org/wiki/Jennifer_Gan'
p915
aS'http://en.wikipedia.org/wiki/Michele_DeCesare'
p916
aS'http://en.wikipedia.org/wiki/Tyra_Banks'
p917
aS'http://en.wikipedia.org/wiki/Carrie_Brownstein'
p918
aS'http://en.wikipedia.org/wiki/Christina_Applegate'
p919
aS'http://en.wikipedia.org/wiki/Agnes_Bruckner'
p920
aS'http://en.wikipedia.org/wiki/Adina_Porter'
p921
aS'http://en.wikipedia.org/wiki/Alektra_Blue'
p922
aS'http://en.wikipedia.org/wiki/Josette_Banzet'
p923
aS'http://en.wikipedia.org/wiki/Ellie_Kemper'
p924
aS'http://en.wikipedia.org/wiki/Janet_Leigh'
p925
aS'http://en.wikipedia.org/wiki/Susan_Tolsky'
p926
aS'http://en.wikipedia.org/wiki/Lisa_Vidal'
p927
aS'http://en.wikipedia.org/wiki/Natalia_Cigliuti'
p928
aS'http://en.wikipedia.org/wiki/Kellee_Stewart'
p929
aS'http://en.wikipedia.org/wiki/Carol_Grace'
p930
aS'http://en.wikipedia.org/wiki/Caryl_Lincoln'
p931
aS'http://en.wikipedia.org/wiki/Kate_French'
p932
aS'http://en.wikipedia.org/wiki/Da_Brat'
p933
aS'http://en.wikipedia.org/wiki/Emily_Hahn_(actress)'
p934
aS'http://en.wikipedia.org/wiki/Mary_Vivian_Pearce'
p935
aS'http://en.wikipedia.org/wiki/Joy_Boushel'
p936
aS'http://en.wikipedia.org/wiki/Jillian_Kesner-Graver'
p937
aS'http://en.wikipedia.org/wiki/Wendie_Malick'
p938
aS'http://en.wikipedia.org/wiki/Lucy_Hale'
p939
aS'http://en.wikipedia.org/wiki/Niecy_Nash'
p940
aS'http://en.wikipedia.org/wiki/Marpessa_Dawn'
p941
aS'http://en.wikipedia.org/wiki/Roberta_Flack'
p942
aS'http://en.wikipedia.org/wiki/Michelle_Wolff'
p943
aS'http://en.wikipedia.org/wiki/Norah_Jones'
p944
aS'http://en.wikipedia.org/wiki/Carol_Lynley'
p945
aS'http://en.wikipedia.org/wiki/Doris_Kenyon'
p946
aS'http://en.wikipedia.org/wiki/Taylor_Schilling'
p947
aS'http://en.wikipedia.org/wiki/Heidi_Kozak'
p948
aS'http://en.wikipedia.org/wiki/Sarah_Hyland'
p949
aS'http://en.wikipedia.org/wiki/Aya_Cash'
p950
aS'http://en.wikipedia.org/wiki/Mary_Kay_Adams'
p951
aS'http://en.wikipedia.org/wiki/Nayo_Wallace'
p952
aS'http://en.wikipedia.org/wiki/Nicki_Minaj'
p953
aS'http://en.wikipedia.org/wiki/Laura_La_Plante'
p954
aS'http://en.wikipedia.org/wiki/Elizabeth_Harrower_(actress)'
p955
aS'http://en.wikipedia.org/wiki/Maura_Soden'
p956
aS'http://en.wikipedia.org/wiki/Dorothy_Adams'
p957
aS'http://en.wikipedia.org/wiki/Rose_Abdoo'
p958
aS'http://en.wikipedia.org/wiki/Zo%C3%AB_Wanamaker'
p959
aS'http://en.wikipedia.org/wiki/Faye_Adell'
p960
aS'http://en.wikipedia.org/wiki/Kim_Darby'
p961
aS'http://en.wikipedia.org/wiki/Apollonia_Kotero'
p962
aS'http://en.wikipedia.org/wiki/Molly_Price'
p963
aS'http://en.wikipedia.org/wiki/Regina_King'
p964
aS'http://en.wikipedia.org/wiki/Ilene_Graff'
p965
aS'http://en.wikipedia.org/wiki/Michael_Michele'
p966
aS'http://en.wikipedia.org/wiki/Priscilla_Presley'
p967
aS'http://en.wikipedia.org/wiki/Lois_Austin'
p968
aS'http://en.wikipedia.org/wiki/Beth_Grant'
p969
aS'http://en.wikipedia.org/wiki/Norma_Shearer'
p970
aS'http://en.wikipedia.org/wiki/Gloria_Holden'
p971
aS'http://en.wikipedia.org/wiki/Melissa_Rauch'
p972
aS'http://en.wikipedia.org/wiki/Kathryn_Fiore'
p973
aS'http://en.wikipedia.org/wiki/Kathryn_Sheldon'
p974
aS'http://en.wikipedia.org/wiki/Nicole_Steinwedell'
p975
aS'http://en.wikipedia.org/wiki/Rowan_Blanchard'
p976
aS'http://en.wikipedia.org/wiki/Myra_Turley'
p977
aS'http://en.wikipedia.org/wiki/Carlotta_Monti'
p978
aS'http://en.wikipedia.org/wiki/Doris_Pawn'
p979
aS'http://en.wikipedia.org/wiki/Nocera_(singer)'
p980
aS'http://en.wikipedia.org/wiki/Mollie_McConnell'
p981
aS'http://en.wikipedia.org/wiki/Selenis_Leyva'
p982
aS'http://en.wikipedia.org/wiki/Judith_Barrett'
p983
aS'http://en.wikipedia.org/wiki/Kate_Upton'
p984
aS'http://en.wikipedia.org/wiki/Joely_Fisher'
p985
aS'http://en.wikipedia.org/wiki/Majandra_Delfino'
p986
aS'http://en.wikipedia.org/wiki/Jessica_Capshaw'
p987
aS'http://en.wikipedia.org/wiki/Cindy_Cheung_(actress)'
p988
aS'http://en.wikipedia.org/wiki/Lisa_Wilcox'
p989
aS'http://en.wikipedia.org/wiki/Amber_Rose'
p990
aS'http://en.wikipedia.org/wiki/Joan_Crawford'
p991
aS'http://en.wikipedia.org/wiki/Gail_Boggs'
p992
aS'http://en.wikipedia.org/wiki/Millie_Perkins'
p993
aS'http://en.wikipedia.org/wiki/Ashley_Laurence'
p994
aS'http://en.wikipedia.org/wiki/Caitlin_Carmichael'
p995
aS'http://en.wikipedia.org/wiki/Busy_Philipps'
p996
aS'http://en.wikipedia.org/wiki/Dale_Fuller_(actress)'
p997
aS'http://en.wikipedia.org/wiki/Jennifer_Ehle'
p998
aS'http://en.wikipedia.org/wiki/Julie_St._Claire'
p999
aS'http://en.wikipedia.org/wiki/Amy_Morton'
p1000
aS'http://en.wikipedia.org/wiki/Maddy_Curley'
p1001
aS'http://en.wikipedia.org/wiki/Kathleen_Key'
p1002
aS'http://en.wikipedia.org/wiki/Bibbe_Hansen'
p1003
aS'http://en.wikipedia.org/wiki/Leila_Arcieri'
p1004
aS'http://en.wikipedia.org/wiki/Sam_Doumit'
p1005
aS'http://en.wikipedia.org/wiki/Tina_Turner'
p1006
aS'http://en.wikipedia.org/wiki/Adair_Tishler'
p1007
aS'http://en.wikipedia.org/wiki/Cara_DeLizia'
p1008
aS'http://en.wikipedia.org/wiki/Joie_Lee'
p1009
aS'http://en.wikipedia.org/wiki/Bitsie_Tulloch'
p1010
aS'http://en.wikipedia.org/wiki/Martha_Raye'
p1011
aS'http://en.wikipedia.org/wiki/Patricia_Neal'
p1012
aS'http://en.wikipedia.org/wiki/Drew_Sidora'
p1013
aS'http://en.wikipedia.org/wiki/Kathleen_Bryson'
p1014
aS'http://en.wikipedia.org/wiki/Bertha_Kalich'
p1015
aS'http://en.wikipedia.org/wiki/Karla_Cheatham_Mosley'
p1016
aS'http://en.wikipedia.org/wiki/Marlene_Dietrich'
p1017
aS'http://en.wikipedia.org/wiki/Rhonda_Fleming'
p1018
aS'http://en.wikipedia.org/wiki/Sarah_Jones_(screen_actress)'
p1019
aS'http://en.wikipedia.org/wiki/Corina_(singer)'
p1020
aS'http://en.wikipedia.org/wiki/Mitzi_Martin'
p1021
aS'http://en.wikipedia.org/wiki/Lynne_Marta'
p1022
aS'http://en.wikipedia.org/wiki/Flo_Rida'
p1023
aS'http://en.wikipedia.org/wiki/Liza_Fox'
p1024
aS'http://en.wikipedia.org/wiki/Irene_Worth'
p1025
aS'http://en.wikipedia.org/wiki/Adrianne_Le%C3%B3n'
p1026
aS'http://en.wikipedia.org/wiki/Amzie_Strickland'
p1027
aS'http://en.wikipedia.org/wiki/Monica_Potter'
p1028
aS'http://en.wikipedia.org/wiki/Tracey_Birdsall-Smith'
p1029
aS'http://en.wikipedia.org/wiki/Estelle_Harris'
p1030
aS'http://en.wikipedia.org/wiki/Anastasia_Ganias'
p1031
aS'http://en.wikipedia.org/wiki/Janet_Beecher'
p1032
aS'http://en.wikipedia.org/wiki/Margaret_Markov'
p1033
aS'http://en.wikipedia.org/wiki/Andrea_Gabriel'
p1034
aS'http://en.wikipedia.org/wiki/Nora_Kirkpatrick'
p1035
aS'http://en.wikipedia.org/wiki/Jean_Hale'
p1036
aS'http://en.wikipedia.org/wiki/Idina_Menzel'
p1037
aS'http://en.wikipedia.org/wiki/Irene_Franklin'
p1038
aS'http://en.wikipedia.org/wiki/Rhoda_Griffis'
p1039
aS'http://en.wikipedia.org/wiki/Lillian_Herlein'
p1040
aS'http://en.wikipedia.org/wiki/Agnes_Steele'
p1041
aS'http://en.wikipedia.org/wiki/Leighton_Meester'
p1042
aS'http://en.wikipedia.org/wiki/Femi_Emiola'
p1043
a.