(lp0
S''
p1
aS'http://en.wikipedia.org/wiki/Relish_Publications'
p2
aS'http://en.wikipedia.org/wiki/Turkey_fryer'
p3
aS'http://en.wikipedia.org/wiki/Vacuum_filler'
p4
aS'http://en.wikipedia.org/wiki/Bowl'
p5
aS'http://en.wikipedia.org/wiki/Vase_with_nine_peach_design'
p6
aS'http://en.wikipedia.org/wiki/Clothespin'
p7
aS'http://en.wikipedia.org/wiki/Snap_table'
p8
aS'http://en.wikipedia.org/wiki/Rhyming_recipe'
p9
aS'http://en.wikipedia.org/wiki/Sleep%E2%80%93wake_activity_inventory'
p10
aS'http://en.wikipedia.org/wiki/Cook%27s_treat'
p11
aS'http://en.wikipedia.org/wiki/Plumett_AL-52'
p12
aS'http://en.wikipedia.org/wiki/Loom'
p13
aS'http://en.wikipedia.org/wiki/Pointing_machine'
p14
aS'http://en.wikipedia.org/wiki/Edger'
p15
aS'http://en.wikipedia.org/wiki/Hay_knife'
p16
aS'http://en.wikipedia.org/wiki/Time_pressure_gauge'
p17
aS'http://en.wikipedia.org/wiki/Serration'
p18
aS'http://en.wikipedia.org/wiki/Pipecutter'
p19
aS'http://en.wikipedia.org/wiki/Central_Institute_of_Tool_Design'
p20
aS'http://en.wikipedia.org/wiki/Servis'
p21
aS'http://en.wikipedia.org/wiki/Paper_machine'
p22
aS'http://en.wikipedia.org/wiki/Corn_roaster'
p23
aS'http://en.wikipedia.org/wiki/Mechanical_advantage'
p24
aS'http://en.wikipedia.org/wiki/Rice_polisher'
p25
aS'http://en.wikipedia.org/wiki/Al_dente'
p26
aS'http://en.wikipedia.org/wiki/Clean-burning_stove'
p27
aS'http://en.wikipedia.org/wiki/Whiskey_thief'
p28
aS'http://en.wikipedia.org/wiki/Small_plates'
p29
aS'http://en.wikipedia.org/wiki/Electric_machine'
p30
aS'http://en.wikipedia.org/wiki/Sigri_(stove)'
p31
aS'http://en.wikipedia.org/wiki/Sand_box_(civil_engineering)'
p32
aS'http://en.wikipedia.org/wiki/Newcomb_Pottery'
p33
aS'http://en.wikipedia.org/wiki/Tools_and_Trades_History_Society'
p34
aS'http://en.wikipedia.org/wiki/Record_press'
p35
aS'http://en.wikipedia.org/wiki/Tripod'
p36
aS'http://en.wikipedia.org/wiki/Napkin_holder'
p37
aS'http://en.wikipedia.org/wiki/Grappling_hook'
p38
aS'http://en.wikipedia.org/wiki/Beehive_oven'
p39
aS'http://en.wikipedia.org/wiki/Fire_blanket'
p40
aS'http://en.wikipedia.org/wiki/Hawk_(plasterer%27s_tool)'
p41
aS'http://en.wikipedia.org/wiki/Susceptor'
p42
aS'http://en.wikipedia.org/wiki/Tiffin_carrier'
p43
aS'http://en.wikipedia.org/wiki/Fire_iron'
p44
aS'http://en.wikipedia.org/wiki/Knife_rest'
p45
aS'http://en.wikipedia.org/wiki/Machine'
p46
aS'http://en.wikipedia.org/wiki/Wheel_chock'
p47
aS'http://en.wikipedia.org/wiki/Milling_cutter'
p48
aS'http://en.wikipedia.org/wiki/Rotary_union'
p49
aS'http://en.wikipedia.org/wiki/Tea_stove'
p50
aS'http://en.wikipedia.org/wiki/Churn_drill'
p51
aS'http://en.wikipedia.org/wiki/Wet_grinder'
p52
aS'http://en.wikipedia.org/wiki/Dog_(engineering)'
p53
aS'http://en.wikipedia.org/wiki/Dry_box'
p54
aS'http://en.wikipedia.org/wiki/Power_tool'
p55
aS'http://en.wikipedia.org/wiki/Emireh_point'
p56
aS'http://en.wikipedia.org/wiki/Recipe'
p57
aS'http://en.wikipedia.org/wiki/Corkscrew'
p58
aS'http://en.wikipedia.org/wiki/Bread_machine'
p59
aS'http://en.wikipedia.org/wiki/Bicycle_tree'
p60
aS'http://en.wikipedia.org/wiki/Marmite_(cooking_dish)'
p61
aS'http://en.wikipedia.org/wiki/Tree_planting_bar'
p62
aS'http://en.wikipedia.org/wiki/Chip_formation'
p63
aS'http://en.wikipedia.org/wiki/Zaporizhzhia_thermal_power_station'
p64
aS'http://en.wikipedia.org/wiki/Gunderson_Do-All_Machine'
p65
aS'http://en.wikipedia.org/wiki/Samovar'
p66
aS'http://en.wikipedia.org/wiki/Stewart_platform'
p67
aS'http://en.wikipedia.org/wiki/Spud_bar'
p68
aS'http://en.wikipedia.org/wiki/Crocus_cloth'
p69
aS'http://en.wikipedia.org/wiki/Popcorn_maker'
p70
aS'http://en.wikipedia.org/wiki/Mastopexy'
p71
aS'http://en.wikipedia.org/wiki/Useless_machine'
p72
aS'http://en.wikipedia.org/wiki/Paris_Hilton'
p73
aS'http://en.wikipedia.org/wiki/Stone_tool'
p74
aS'http://en.wikipedia.org/wiki/Household_hardware'
p75
aS'http://en.wikipedia.org/wiki/Picnic_basket'
p76
aS'http://en.wikipedia.org/wiki/Shichirin'
p77
aS'http://en.wikipedia.org/wiki/Six-bar_linkage'
p78
aS'http://en.wikipedia.org/wiki/Draper_Tools'
p79
aS'http://en.wikipedia.org/wiki/Ladder'
p80
aS'http://en.wikipedia.org/wiki/Wet_bar'
p81
aS'http://en.wikipedia.org/wiki/Makitra'
p82
aS'http://en.wikipedia.org/wiki/Compactor'
p83
aS'http://en.wikipedia.org/wiki/Bark_hack'
p84
aS'http://en.wikipedia.org/wiki/Anti-griddle'
p85
aS'http://en.wikipedia.org/wiki/Halogen_oven'
p86
aS'http://en.wikipedia.org/wiki/Hook_ladder'
p87
aS'http://en.wikipedia.org/wiki/Wire_brush'
p88
aS'http://en.wikipedia.org/wiki/Surface_chemistry_of_cooking'
p89
aS'http://en.wikipedia.org/wiki/Can_opener'
p90
aS'http://en.wikipedia.org/wiki/Cooking'
p91
aS'http://en.wikipedia.org/wiki/Lineman%27s_pliers'
p92
aS'http://en.wikipedia.org/wiki/Wood-fired_oven'
p93
aS'http://en.wikipedia.org/wiki/Hot-wire_foam_cutter'
p94
aS'http://en.wikipedia.org/wiki/Beanpot'
p95
aS'http://en.wikipedia.org/wiki/Crock_(dishware)'
p96
aS'http://en.wikipedia.org/wiki/Bolt_cutter'
p97
aS'http://en.wikipedia.org/wiki/Rotisserie'
p98
aS'http://en.wikipedia.org/wiki/Hamper'
p99
aS'http://en.wikipedia.org/wiki/Broom'
p100
aS'http://en.wikipedia.org/wiki/Barbecue_grill'
p101
aS'http://en.wikipedia.org/wiki/Hawkstone_Grail'
p102
aS'http://en.wikipedia.org/wiki/Demaco_extruder'
p103
aS'http://en.wikipedia.org/wiki/Chorkor_oven'
p104
aS'http://en.wikipedia.org/wiki/Reflector_oven'
p105
aS'http://en.wikipedia.org/wiki/Garth_Fisher'
p106
aS'http://en.wikipedia.org/wiki/Multi-fuel_stove'
p107
aS'http://en.wikipedia.org/wiki/Stove'
p108
aS'http://en.wikipedia.org/wiki/Leather_punch'
p109
aS'http://en.wikipedia.org/wiki/Haybox'
p110
aS'http://en.wikipedia.org/wiki/Coffee_percolator'
p111
aS'http://en.wikipedia.org/wiki/Kinematic_coupling'
p112
aS'http://en.wikipedia.org/wiki/Transmission_(mechanics)'
p113
aS'http://en.wikipedia.org/wiki/Wedge_based_mechanical_exfoliation'
p114
aS'http://en.wikipedia.org/wiki/Metal_bellows'
p115
aS'http://en.wikipedia.org/wiki/Cooking_weights_and_measures'
p116
aS'http://en.wikipedia.org/wiki/Compact_(cosmetics)'
p117
aS'http://en.wikipedia.org/wiki/Tool_bit'
p118
aS'http://en.wikipedia.org/wiki/Silcrete'
p119
aS'http://en.wikipedia.org/wiki/Soap_dish'
p120
aS'http://en.wikipedia.org/wiki/Spill_plane'
p121
aS'http://en.wikipedia.org/wiki/Self-propelled_modular_transporter'
p122
aS'http://en.wikipedia.org/wiki/Handbag'
p123
aS'http://en.wikipedia.org/wiki/Scythe'
p124
aS'http://en.wikipedia.org/wiki/Stall_(engine)'
p125
aS'http://en.wikipedia.org/wiki/Fid'
p126
aS'http://en.wikipedia.org/wiki/CM_Lodestar_electric_chain_hoist'
p127
aS'http://en.wikipedia.org/wiki/Heat_exchanger'
p128
aS'http://en.wikipedia.org/wiki/Remoska'
p129
aS'http://en.wikipedia.org/wiki/Egg_timer'
p130
aS'http://en.wikipedia.org/wiki/Temperature_(meat)'
p131
aS'http://en.wikipedia.org/wiki/Tandoor'
p132
aS'http://en.wikipedia.org/wiki/Combe_Incorporated'
p133
aS'http://en.wikipedia.org/wiki/Pudding_cloth'
p134
aS'http://en.wikipedia.org/wiki/Gear_train'
p135
aS'http://en.wikipedia.org/wiki/Jamshidi_needle'
p136
aS'http://en.wikipedia.org/wiki/Limoges_porcelain'
p137
aS'http://en.wikipedia.org/wiki/Jim_crow_(tool)'
p138
aS'http://en.wikipedia.org/wiki/Car_ramp'
p139
aS'http://en.wikipedia.org/wiki/Flashlight'
p140
aS'http://en.wikipedia.org/wiki/Rocket_mass_heater'
p141
aS'http://en.wikipedia.org/wiki/Blade'
p142
aS'http://en.wikipedia.org/wiki/Batter_(cooking)'
p143
aS'http://en.wikipedia.org/wiki/Roasting_jack'
p144
aS'http://en.wikipedia.org/wiki/Duplicating_machines'
p145
aS'http://en.wikipedia.org/wiki/Microwave_oven'
p146
aS'http://en.wikipedia.org/wiki/Sabbath_mode'
p147
aS'http://en.wikipedia.org/wiki/Variscale'
p148
aS'http://en.wikipedia.org/wiki/Placemat'
p149
aS'http://en.wikipedia.org/wiki/Cigar_cutter'
p150
aS'http://en.wikipedia.org/wiki/Frisket'
p151
aS'http://en.wikipedia.org/wiki/Parkinson_Cowan'
p152
aS'http://en.wikipedia.org/wiki/Dipper_well'
p153
aS'http://en.wikipedia.org/wiki/Strand_jack'
p154
aS'http://en.wikipedia.org/wiki/Pimp_stick'
p155
aS'http://en.wikipedia.org/wiki/Radox'
p156
aS'http://en.wikipedia.org/wiki/Convenience_cooking'
p157
aS'http://en.wikipedia.org/wiki/Shadoof'
p158
aS'http://en.wikipedia.org/wiki/Outline_of_food_preparation'
p159
aS'http://en.wikipedia.org/wiki/Overconstrained_mechanism'
p160
aS'http://en.wikipedia.org/wiki/TurnPro_magnetic_finger'
p161
aS'http://en.wikipedia.org/wiki/Chinois'
p162
aS'http://en.wikipedia.org/wiki/Roger_Sherman_Loomis'
p163
aS'http://en.wikipedia.org/wiki/Rack_and_pinion'
p164
aS'http://en.wikipedia.org/wiki/XAP_Home_Automation_protocol'
p165
aS'http://en.wikipedia.org/wiki/Oxford_Symposium_on_Food_and_Cookery'
p166
aS'http://en.wikipedia.org/wiki/Stage_(cooking)'
p167
aS'http://en.wikipedia.org/wiki/Anal_bleaching'
p168
aS'http://en.wikipedia.org/wiki/Kyoto_box'
p169
aS'http://en.wikipedia.org/wiki/Backscratcher'
p170
aS'http://en.wikipedia.org/wiki/Percival'
p171
aS'http://en.wikipedia.org/wiki/Mechanical_system'
p172
aS'http://en.wikipedia.org/wiki/Aim_(toothpaste)'
p173
aS'http://en.wikipedia.org/wiki/Sandwich_toaster'
p174
aS'http://en.wikipedia.org/wiki/Soup_spoon'
p175
aS'http://en.wikipedia.org/wiki/Roasting_pan'
p176
aS'http://en.wikipedia.org/wiki/Helping_hand_(tool)'
p177
aS'http://en.wikipedia.org/wiki/Draw_twister'
p178
aS'http://en.wikipedia.org/wiki/Bachelor_griller'
p179
aS'http://en.wikipedia.org/wiki/Storey_pole'
p180
aS'http://en.wikipedia.org/wiki/Gang_box'
p181
aS'http://en.wikipedia.org/wiki/Epicanthoplasty'
p182
aS'http://en.wikipedia.org/wiki/Die_(manufacturing)'
p183
aS'http://en.wikipedia.org/wiki/Masonry_oven'
p184
aS'http://en.wikipedia.org/wiki/Wrecking_ball'
p185
aS'http://en.wikipedia.org/wiki/Beer_koozie'
p186
aS'http://en.wikipedia.org/wiki/Thimble'
p187
aS'http://en.wikipedia.org/wiki/Colambre'
p188
aS'http://en.wikipedia.org/wiki/Trammel_hook'
p189
aS'http://en.wikipedia.org/wiki/Hakapik'
p190
aS'http://en.wikipedia.org/wiki/Honing_steel'
p191
aS'http://en.wikipedia.org/wiki/Mold_(cooking_implement)'
p192
aS'http://en.wikipedia.org/wiki/Linkage_(mechanical)'
p193
aS'http://en.wikipedia.org/wiki/Microblade_technology'
p194
aS'http://en.wikipedia.org/wiki/Wood-burning_stove'
p195
aS'http://en.wikipedia.org/wiki/Convection_microwave'
p196
aS'http://en.wikipedia.org/wiki/Hand_truck'
p197
aS'http://en.wikipedia.org/wiki/Vestfrost'
p198
aS'http://en.wikipedia.org/wiki/Al_forno'
p199
aS'http://en.wikipedia.org/wiki/Mise_en_place'
p200
aS'http://en.wikipedia.org/wiki/Glass_cutter'
p201
aS'http://en.wikipedia.org/wiki/Nibbler'
p202
aS'http://en.wikipedia.org/wiki/Autopen'
p203
aS'http://en.wikipedia.org/wiki/Geneva_drive'
p204
aS'http://en.wikipedia.org/wiki/Advantium'
p205
aS'http://en.wikipedia.org/wiki/Ho%C3%A0ng_C%E1%BA%A7m_stove'
p206
aS'http://en.wikipedia.org/wiki/Communal_oven'
p207
aS'http://en.wikipedia.org/wiki/Diamond_grinding_cup_wheel'
p208
aS'http://en.wikipedia.org/wiki/Toilet_paper'
p209
aS'http://en.wikipedia.org/wiki/Flat_spline'
p210
aS'http://en.wikipedia.org/wiki/Flatbed_trolley'
p211
aS'http://en.wikipedia.org/wiki/Wedge_(mechanical_device)'
p212
aS'http://en.wikipedia.org/wiki/Serrated_blade'
p213
aS'http://en.wikipedia.org/wiki/Trephine'
p214
aS'http://en.wikipedia.org/wiki/Chambers_stove'
p215
aS'http://en.wikipedia.org/wiki/Butane_torch'
p216
aS'http://en.wikipedia.org/wiki/Composing_stick'
p217
aS'http://en.wikipedia.org/wiki/Oven_glove'
p218
aS'http://en.wikipedia.org/wiki/Mortarium'
p219
aS'http://en.wikipedia.org/wiki/Coat_rack'
p220
aS'http://en.wikipedia.org/wiki/Chef%27s_uniform'
p221
aS'http://en.wikipedia.org/wiki/Rice_cooker'
p222
aS'http://en.wikipedia.org/wiki/Annular_cutter'
p223
aS'http://en.wikipedia.org/wiki/Clipboard'
p224
aS'http://en.wikipedia.org/wiki/Dimpler'
p225
aS'http://en.wikipedia.org/wiki/Scaif'
p226
aS'http://en.wikipedia.org/wiki/Billhook'
p227
aS'http://en.wikipedia.org/wiki/Four-bar_linkage'
p228
aS'http://en.wikipedia.org/wiki/Uninhibited'
p229
aS'http://en.wikipedia.org/wiki/Primus_stove'
p230
aS'http://en.wikipedia.org/wiki/Broaching_(metalworking)'
p231
aS'http://en.wikipedia.org/wiki/Tableware'
p232
aS'http://en.wikipedia.org/wiki/Four-slide'
p233
aS'http://en.wikipedia.org/wiki/Bridge-spouted_vessel'
p234
aS'http://en.wikipedia.org/wiki/Slipcover'
p235
aS'http://en.wikipedia.org/wiki/Lawn_mower'
p236
aS'http://en.wikipedia.org/wiki/The_Armada_Service'
p237
aS'http://en.wikipedia.org/wiki/Gas_burner'
p238
aS'http://en.wikipedia.org/wiki/Food_steamer'
p239
aS'http://en.wikipedia.org/wiki/Laminate_trimmer'
p240
aS'http://en.wikipedia.org/wiki/Persian_drill'
p241
aS'http://en.wikipedia.org/wiki/Surplus_Record_Machinery_%26_Equipment_Directory'
p242
aS'http://en.wikipedia.org/wiki/Skyworth'
p243
aS'http://en.wikipedia.org/wiki/Red_Cross_stove'
p244
aS'http://en.wikipedia.org/wiki/Tongs'
p245
aS'http://en.wikipedia.org/wiki/Rake_angle'
p246
aS'http://en.wikipedia.org/wiki/Recovery_time_(culinary)'
p247
aS'http://en.wikipedia.org/wiki/Air_line'
p248
aS'http://en.wikipedia.org/wiki/Fire_pot'
p249
aS'http://en.wikipedia.org/wiki/Krampouz'
p250
aS'http://en.wikipedia.org/wiki/French_flush-cut_saw'
p251
aS'http://en.wikipedia.org/wiki/Dough'
p252
aS'http://en.wikipedia.org/wiki/Photostat_machine'
p253
aS'http://en.wikipedia.org/wiki/Agarwood'
p254
aS'http://en.wikipedia.org/wiki/Pastry_brush'
p255
aS'http://en.wikipedia.org/wiki/Suction_trap'
p256
aS'http://en.wikipedia.org/wiki/Bread_warmer'
p257
aS'http://en.wikipedia.org/wiki/Paper_bag'
p258
aS'http://en.wikipedia.org/wiki/Concrete_float'
p259
aS'http://en.wikipedia.org/wiki/Pottery_gauge'
p260
aS'http://en.wikipedia.org/wiki/Combi_steamer'
p261
aS'http://en.wikipedia.org/wiki/Pot-holder'
p262
aS'http://en.wikipedia.org/wiki/CHROMA_Cnife'
p263
aS'http://en.wikipedia.org/wiki/Bagging_hook'
p264
aS'http://en.wikipedia.org/wiki/Convection_oven'
p265
aS'http://en.wikipedia.org/wiki/Walking_stick'
p266
aS'http://en.wikipedia.org/wiki/Aromatherapy'
p267
aS'http://en.wikipedia.org/wiki/Dual_quaternion'
p268
aS'http://en.wikipedia.org/wiki/Bottle_opener'
p269
aS'http://en.wikipedia.org/wiki/Stall_torque'
p270
aS'http://en.wikipedia.org/wiki/Ksar_Akil_flake'
p271
aS'http://en.wikipedia.org/wiki/Batterie_de_cuisine'
p272
aS'http://en.wikipedia.org/wiki/Handle_(grip)'
p273
aS'http://en.wikipedia.org/wiki/Once-a-month_cooking'
p274
aS'http://en.wikipedia.org/wiki/Head_spade'
p275
aS'http://en.wikipedia.org/wiki/Mess_kit'
p276
aS'http://en.wikipedia.org/wiki/Oven'
p277
aS'http://en.wikipedia.org/wiki/Slasher_(tool)'
p278
aS'http://en.wikipedia.org/wiki/Nail_clipper'
p279
aS'http://en.wikipedia.org/wiki/Shell_purse'
p280
aS'http://en.wikipedia.org/wiki/Buy_Quiet'
p281
aS'http://en.wikipedia.org/wiki/Vaseline'
p282
aS'http://en.wikipedia.org/wiki/Ultrasonic_nozzle'
p283
aS'http://en.wikipedia.org/wiki/Electric_stove'
p284
aS'http://en.wikipedia.org/wiki/Chocolatera'
p285
aS'http://en.wikipedia.org/wiki/Diamond_segment'
p286
aS'http://en.wikipedia.org/wiki/Oil-filter_wrench'
p287
aS'http://en.wikipedia.org/wiki/Bamboo_stove'
p288
aS'http://en.wikipedia.org/wiki/Nerol'
p289
aS'http://en.wikipedia.org/wiki/Post_pounder'
p290
aS'http://en.wikipedia.org/wiki/Kitchenware'
p291
aS'http://en.wikipedia.org/wiki/Field_kitchen'
p292
aS'http://en.wikipedia.org/wiki/Fulgor'
p293
aS'http://en.wikipedia.org/wiki/Pugmill'
p294
aS'http://en.wikipedia.org/wiki/Nipper_(tool)'
p295
aS'http://en.wikipedia.org/wiki/Lesbian_rule'
p296
aS'http://en.wikipedia.org/wiki/Grapple_(tool)'
p297
aS'http://en.wikipedia.org/wiki/Condensate_polisher'
p298
aS'http://en.wikipedia.org/wiki/Ceramic_tile_cutter'
p299
aS'http://en.wikipedia.org/wiki/Rotary_cutter'
p300
aS'http://en.wikipedia.org/wiki/Dough_blender'
p301
aS'http://en.wikipedia.org/wiki/Mechanophilia'
p302
aS'http://en.wikipedia.org/wiki/Keychain'
p303
aS'http://en.wikipedia.org/wiki/Thermal_lance'
p304
aS'http://en.wikipedia.org/wiki/Pie_bird'
p305
aS'http://en.wikipedia.org/wiki/Jar_opener'
p306
aS'http://en.wikipedia.org/wiki/Kneading-trough'
p307
aS'http://en.wikipedia.org/wiki/Pneumatic_tool'
p308
aS'http://en.wikipedia.org/wiki/Sickle'
p309
aS'http://en.wikipedia.org/wiki/Mechanical_efficiency'
p310
aS'http://en.wikipedia.org/wiki/Diamond_tool'
p311
aS'http://en.wikipedia.org/wiki/Auto_reignition'
p312
aS'http://en.wikipedia.org/wiki/Adaptive_equipment'
p313
aS'http://en.wikipedia.org/wiki/Razor'
p314
aS'http://en.wikipedia.org/wiki/Toaster'
p315
aS'http://en.wikipedia.org/wiki/Russian_oven'
p316
aS'http://en.wikipedia.org/wiki/Assisted-opening_knife'
p317
aS'http://en.wikipedia.org/wiki/Bellows'
p318
aS'http://en.wikipedia.org/wiki/Scrubber_(brush)'
p319
aS'http://en.wikipedia.org/wiki/Brush'
p320
aS'http://en.wikipedia.org/wiki/Tiger_Corporation'
p321
aS'http://en.wikipedia.org/wiki/Hot_plate'
p322
aS'http://en.wikipedia.org/wiki/Tabun_oven'
p323
aS'http://en.wikipedia.org/wiki/Flexible_shaft'
p324
aS'http://en.wikipedia.org/wiki/Grattoir_de_c%C3%B4t%C3%A9'
p325
aS'http://en.wikipedia.org/wiki/Melting_tank'
p326
aS'http://en.wikipedia.org/wiki/Maybelline'
p327
aS'http://en.wikipedia.org/wiki/Janome'
p328
aS'http://en.wikipedia.org/wiki/Mechanical_network'
p329
aS'http://en.wikipedia.org/wiki/Toque'
p330
aS'http://en.wikipedia.org/wiki/Safety_razor'
p331
aS'http://en.wikipedia.org/wiki/Toothbrush'
p332
aS'http://en.wikipedia.org/wiki/Tablet_press'
p333
aS'http://en.wikipedia.org/wiki/Siphon'
p334
aS'http://en.wikipedia.org/wiki/Wells_light'
p335
aS'http://en.wikipedia.org/wiki/Cordon_D%27Or'
p336
aS'http://en.wikipedia.org/wiki/Self-cleaning_oven'
p337
aS'http://en.wikipedia.org/wiki/Handle-o-Meter'
p338
aS'http://en.wikipedia.org/wiki/Sponge_(material)'
p339
aS'http://en.wikipedia.org/wiki/Tool_use_by_animals'
p340
aS'http://en.wikipedia.org/wiki/Machine_tool'
p341
aS'http://en.wikipedia.org/wiki/Dwell_mechanism'
p342
aS'http://en.wikipedia.org/wiki/EcoZoom'
p343
aS'http://en.wikipedia.org/wiki/Drill'
p344
aS'http://en.wikipedia.org/wiki/Deployable_structure'
p345
aS'http://en.wikipedia.org/wiki/Hydraulic_rescue_tools'
p346
aS'http://en.wikipedia.org/wiki/Skimmer_(machine)'
p347
aS'http://en.wikipedia.org/wiki/Coffeemaker'
p348
aS'http://en.wikipedia.org/wiki/Clothes_hanger'
p349
aS'http://en.wikipedia.org/wiki/Pivot_shear'
p350
aS'http://en.wikipedia.org/wiki/Basket'
p351
aS'http://en.wikipedia.org/wiki/Cherry_pitter'
p352
aS'http://en.wikipedia.org/wiki/Cosmetic_Executive_Women'
p353
aS'http://en.wikipedia.org/wiki/Jockey_box'
p354
aS'http://en.wikipedia.org/wiki/Machine_(mechanical)'
p355
aS'http://en.wikipedia.org/wiki/Hobo_stove'
p356
aS'http://en.wikipedia.org/wiki/CC_cream'
p357
aS'http://en.wikipedia.org/wiki/Food_mill'
p358
aS'http://en.wikipedia.org/wiki/Thermal_immersion_circulator'
p359
aS'http://en.wikipedia.org/wiki/Water_thief'
p360
aS'http://en.wikipedia.org/wiki/Laminated_steel_blade'
p361
aS'http://en.wikipedia.org/wiki/Vytex_Natural_Rubber_Latex'
p362
aS'http://en.wikipedia.org/wiki/Tiger_Cave_Kiln'
p363
aS'http://en.wikipedia.org/wiki/Lithophane'
p364
aS'http://en.wikipedia.org/wiki/Glazing_jack'
p365
aS'http://en.wikipedia.org/wiki/Suction_cup'
p366
aS'http://en.wikipedia.org/wiki/Jackhammer'
p367
aS'http://en.wikipedia.org/wiki/Averruncator'
p368
aS'http://en.wikipedia.org/wiki/Kete_(basket)'
p369
aS'http://en.wikipedia.org/wiki/Electrochemical_cell'
p370
aS'http://en.wikipedia.org/wiki/Weight_machine'
p371
aS'http://en.wikipedia.org/wiki/Kaiser_blade'
p372
aS'http://en.wikipedia.org/wiki/Digifold'
p373
aS'http://en.wikipedia.org/wiki/Facial_tissue'
p374
aS'http://en.wikipedia.org/wiki/Anaesthetic_machine'
p375
aS'http://en.wikipedia.org/wiki/Winding_machine'
p376
aS'http://en.wikipedia.org/wiki/Pen'
p377
aS'http://en.wikipedia.org/wiki/Gail_Monaghan'
p378
aS'http://en.wikipedia.org/wiki/Chimney_starter'
p379
aS'http://en.wikipedia.org/wiki/Horno'
p380
aS'http://en.wikipedia.org/wiki/Virtual_work'
p381
aS'http://en.wikipedia.org/wiki/Ironing'
p382
aS'http://en.wikipedia.org/wiki/Leg_mechanism'
p383
aS'http://en.wikipedia.org/wiki/Heat_torch'
p384
aS'http://en.wikipedia.org/wiki/Howard_Smit'
p385
aS'http://en.wikipedia.org/wiki/Mechanism_(engineering)'
p386
aS'http://en.wikipedia.org/wiki/Juicer'
p387
aS'http://en.wikipedia.org/wiki/Burjiko'
p388
aS'http://en.wikipedia.org/wiki/Washing_paddle'
p389
aS'http://en.wikipedia.org/wiki/Fufu_Machine'
p390
aS'http://en.wikipedia.org/wiki/Soy_milk_maker'
p391
aS'http://en.wikipedia.org/wiki/Sylphon'
p392
aS'http://en.wikipedia.org/wiki/Hot_comb'
p393
aS'http://en.wikipedia.org/wiki/Laying'
p394
aS'http://en.wikipedia.org/wiki/Set_square'
p395
aS'http://en.wikipedia.org/wiki/Pony_glass'
p396
aS'http://en.wikipedia.org/wiki/Decanter'
p397
aS'http://en.wikipedia.org/wiki/Wireline_(cabling)'
p398
aS'http://en.wikipedia.org/wiki/Doily'
p399
aS'http://en.wikipedia.org/wiki/Gear_ratio'
p400
aS'http://en.wikipedia.org/wiki/Crepe_maker'
p401
aS'http://en.wikipedia.org/wiki/Damped_machining_tools'
p402
aS'http://en.wikipedia.org/wiki/Tipped_tool'
p403
aS'http://en.wikipedia.org/wiki/Charcuterie'
p404
aS'http://en.wikipedia.org/wiki/Lighter'
p405
aS'http://en.wikipedia.org/wiki/Odor_Eaters'
p406
aS'http://en.wikipedia.org/wiki/Electric_cooker'
p407
aS'http://en.wikipedia.org/wiki/Humidifier'
p408
aS'http://en.wikipedia.org/wiki/Brown_Bobby'
p409
aS'http://en.wikipedia.org/wiki/Monty_Python_and_the_Holy_Grail'
p410
aS'http://en.wikipedia.org/wiki/Block_and_tackle'
p411
aS'http://en.wikipedia.org/wiki/Seed-counting_machine'
p412
aS'http://en.wikipedia.org/wiki/Tangia'
p413
aS'http://en.wikipedia.org/wiki/Andiron'
p414
aS'http://en.wikipedia.org/wiki/RGX'
p415
aS'http://en.wikipedia.org/wiki/Loggerhead_(tool)'
p416
aS'http://en.wikipedia.org/wiki/Technical_drawing_tools'
p417
aS'http://en.wikipedia.org/wiki/Blow_torch'
p418
aS'http://en.wikipedia.org/wiki/ModelCo'
p419
aS'http://en.wikipedia.org/wiki/Teacup'
p420
aS'http://en.wikipedia.org/wiki/Shima_Shima_Tora_no_Shimajir%C5%8D'
p421
aS'http://en.wikipedia.org/wiki/Soap_dispenser'
p422
aS'http://en.wikipedia.org/wiki/Comal_(cookware)'
p423
aS'http://en.wikipedia.org/wiki/Screw_axis'
p424
aS'http://en.wikipedia.org/wiki/Westcott_scissors_and_rulers'
p425
aS'http://en.wikipedia.org/wiki/Kitchen_utensil'
p426
aS'http://en.wikipedia.org/wiki/Hammer_tacker'
p427
aS'http://en.wikipedia.org/wiki/Waffle_iron'
p428
aS'http://en.wikipedia.org/wiki/Tunnel_washer'
p429
aS'http://en.wikipedia.org/wiki/Energy_regulator'
p430
aS'http://en.wikipedia.org/wiki/Morganville_Pottery_Factory_Site'
p431
aS'http://en.wikipedia.org/wiki/Bead_breaker'
p432
aS'http://en.wikipedia.org/wiki/Machine_element'
p433
aS'http://en.wikipedia.org/wiki/Ideal_machine'
p434
aS'http://en.wikipedia.org/wiki/Flattop_grill'
p435
aS'http://en.wikipedia.org/wiki/Gas_meter_prover'
p436
aS'http://en.wikipedia.org/wiki/Frankoma_Pottery'
p437
aS'http://en.wikipedia.org/wiki/1-Tetradecanol'
p438
aS'http://en.wikipedia.org/wiki/Bois_des_%C3%8Eles'
p439
aS'http://en.wikipedia.org/wiki/Scoring_knife'
p440
aS'http://en.wikipedia.org/wiki/Peeler'
p441
aS'http://en.wikipedia.org/wiki/Culinary_art'
p442
aS'http://en.wikipedia.org/wiki/Garde_manger'
p443
aS'http://en.wikipedia.org/wiki/Tamp'
p444
aS'http://en.wikipedia.org/wiki/Melamine_resin'
p445
aS'http://en.wikipedia.org/wiki/Spoon_rest'
p446
aS'http://en.wikipedia.org/wiki/Plate_(dishware)'
p447
aS'http://en.wikipedia.org/wiki/Cradle_(grain)'
p448
aS'http://en.wikipedia.org/wiki/Apple_corer'
p449
aS'http://en.wikipedia.org/wiki/South-pointing_chariot'
p450
aS'http://en.wikipedia.org/wiki/Tool'
p451
aS'http://en.wikipedia.org/wiki/Shaving_cream'
p452
aS'http://en.wikipedia.org/wiki/Air_bearing'
p453
aS'http://en.wikipedia.org/wiki/Webbing_stretcher'
p454
aS'http://en.wikipedia.org/wiki/Upholstery_regulator'
p455
aS'http://en.wikipedia.org/wiki/Cosmetic_Valley'
p456
aS'http://en.wikipedia.org/wiki/Cook_stove'
p457
aS'http://en.wikipedia.org/wiki/Gear'
p458
aS'http://en.wikipedia.org/wiki/Skewer'
p459
aS'http://en.wikipedia.org/wiki/Tortilla_warmer'
p460
aS'http://en.wikipedia.org/wiki/D_bit_cutter'
p461
aS'http://en.wikipedia.org/wiki/Trojan_Room_coffee_pot'
p462
aS'http://en.wikipedia.org/wiki/Come-A-Long'
p463
aS'http://en.wikipedia.org/wiki/Earth_oven'
p464
aS'http://en.wikipedia.org/wiki/Brasero_(heater)'
p465
aS'http://en.wikipedia.org/wiki/Hair_clipper'
p466
aS'http://en.wikipedia.org/wiki/Slow_cooker'
p467
aS'http://en.wikipedia.org/wiki/Kitchener_range'
p468
aS'http://en.wikipedia.org/wiki/Jin-pole'
p469
aS'http://en.wikipedia.org/wiki/Cookie_cutter'
p470
aS'http://en.wikipedia.org/wiki/Fixture_(tool)'
p471
aS'http://en.wikipedia.org/wiki/Hemosiderin'
p472
aS'http://en.wikipedia.org/wiki/Wallet'
p473
aS'http://en.wikipedia.org/wiki/Shot_glass'
p474
aS'http://en.wikipedia.org/wiki/Tunnel_finisher'
p475
aS'http://en.wikipedia.org/wiki/Community_Cooker'
p476
aS'http://en.wikipedia.org/wiki/Carafe'
p477
aS'http://en.wikipedia.org/wiki/Box_blade'
p478
aS'http://en.wikipedia.org/wiki/Growler_(electrical_device)'
p479
aS'http://en.wikipedia.org/wiki/Barbecue'
p480
aS'http://en.wikipedia.org/wiki/Delivery_bar_code_sorter'
p481
aS'http://en.wikipedia.org/wiki/Society_for_Clinical_%26_Medical_Hair_Removal'
p482
aS'http://en.wikipedia.org/wiki/Wallpaper_steamer'
p483
a.