(lp0
S''
p1
aS'http://en.wikipedia.org/wiki/St._Philip%27s_College_(United_States)'
p2
aS'http://en.wikipedia.org/wiki/Auburn_University_at_Montgomery'
p3
aS'http://en.wikipedia.org/wiki/Education_in_ancient_Greece'
p4
aS'http://en.wikipedia.org/wiki/West_Texas_A%26M_University'
p5
aS'http://en.wikipedia.org/wiki/Aarhus_University'
p6
aS'http://en.wikipedia.org/wiki/Palo_Alto_College'
p7
aS'http://en.wikipedia.org/wiki/Academic_genealogy'
p8
aS'http://en.wikipedia.org/wiki/Catawba_Valley_Community_College'
p9
aS'http://en.wikipedia.org/wiki/Children%E2%80%99s_rights_education'
p10
aS'http://en.wikipedia.org/wiki/Pre-service_teacher_education'
p11
aS'http://en.wikipedia.org/wiki/Overlay_journal'
p12
aS'http://en.wikipedia.org/wiki/Central_Piedmont_Community_College'
p13
aS'http://en.wikipedia.org/wiki/University_of_North_Dakota'
p14
aS'http://en.wikipedia.org/wiki/Hunter_College'
p15
aS'http://en.wikipedia.org/wiki/Learning_standards'
p16
aS'http://en.wikipedia.org/wiki/Tabriz_Islamic_Arts_University'
p17
aS'http://en.wikipedia.org/wiki/Dolph_Briscoe_Center_for_American_History'
p18
aS'http://en.wikipedia.org/wiki/Schema_crosswalk'
p19
aS'http://en.wikipedia.org/wiki/Edmonton_Normal_School'
p20
aS'http://en.wikipedia.org/wiki/User_assistance'
p21
aS'http://en.wikipedia.org/wiki/University_of_Kentucky'
p22
aS'http://en.wikipedia.org/wiki/University_of_Wisconsin%E2%80%93Extension'
p23
aS'http://en.wikipedia.org/wiki/Non-traditional_student'
p24
aS'http://en.wikipedia.org/wiki/University_of_Alberta_Augustana_Faculty'
p25
aS'http://en.wikipedia.org/wiki/Tyler_Junior_College'
p26
aS'http://en.wikipedia.org/wiki/Southern_Arkansas_University_Tech'
p27
aS'http://en.wikipedia.org/wiki/University_student_retention'
p28
aS'http://en.wikipedia.org/wiki/Big_Sandy_Community_and_Technical_College'
p29
aS'http://en.wikipedia.org/wiki/Kenston_Forest_School'
p30
aS'http://en.wikipedia.org/wiki/Sampson_Community_College'
p31
aS'http://en.wikipedia.org/wiki/Shelter_Island_Conference'
p32
aS'http://en.wikipedia.org/wiki/Okefenokee_Technical_College'
p33
aS'http://en.wikipedia.org/wiki/Bejan'
p34
aS'http://en.wikipedia.org/wiki/Second_International_Congress_on_Education_of_the_Deaf'
p35
aS'http://en.wikipedia.org/wiki/Texas_A%26M_University_System'
p36
aS'http://en.wikipedia.org/wiki/Native_American_Bible_College'
p37
aS'http://en.wikipedia.org/wiki/Remedial_education'
p38
aS'http://en.wikipedia.org/wiki/The_Academia_Waltz'
p39
aS'http://en.wikipedia.org/wiki/Olathe_North_High_School'
p40
aS'http://en.wikipedia.org/wiki/Valdosta_State_University'
p41
aS'http://en.wikipedia.org/wiki/Henderson_State_University'
p42
aS'http://en.wikipedia.org/wiki/College_preparatory_course'
p43
aS'http://en.wikipedia.org/wiki/Challenge-Based_Learning'
p44
aS'http://en.wikipedia.org/wiki/Education_in_the_Age_of_Enlightenment'
p45
aS'http://en.wikipedia.org/wiki/H-Soz-u-Kult'
p46
aS'http://en.wikipedia.org/wiki/User-centered_design'
p47
aS'http://en.wikipedia.org/wiki/Academic_mobility'
p48
aS'http://en.wikipedia.org/wiki/University_of_Florida'
p49
aS'http://en.wikipedia.org/wiki/Air_University_(United_States_Air_Force)'
p50
aS'http://en.wikipedia.org/wiki/Jefferson_Davis_Community_College'
p51
aS'http://en.wikipedia.org/wiki/Florida_Southern_College'
p52
aS'http://en.wikipedia.org/wiki/Penn_State_Graduate_School'
p53
aS'http://en.wikipedia.org/wiki/Self-archiving'
p54
aS'http://en.wikipedia.org/wiki/Richland_College'
p55
aS'http://en.wikipedia.org/wiki/Literary_executor'
p56
aS'http://en.wikipedia.org/wiki/Canadian_Biosample_Repository'
p57
aS'http://en.wikipedia.org/wiki/Connections_Academy'
p58
aS'http://en.wikipedia.org/wiki/Spalding_University'
p59
aS'http://en.wikipedia.org/wiki/King_Edward_VI_Handsworth'
p60
aS'http://en.wikipedia.org/wiki/Visiting_scholar'
p61
aS'http://en.wikipedia.org/wiki/Sibos_(conference)'
p62
aS'http://en.wikipedia.org/wiki/Text_publication_societies'
p63
aS'http://en.wikipedia.org/wiki/Hugo_Treffner_Gymnasium'
p64
aS'http://en.wikipedia.org/wiki/CAV-TV'
p65
aS'http://en.wikipedia.org/wiki/Evidence-based_education'
p66
aS'http://en.wikipedia.org/wiki/Florida_Legislative_Investigation_Committee'
p67
aS'http://en.wikipedia.org/wiki/Elizabeth_City_State_University'
p68
aS'http://en.wikipedia.org/wiki/East_Mississippi_Community_College'
p69
aS'http://en.wikipedia.org/wiki/Interpretive_discussion'
p70
aS'http://en.wikipedia.org/wiki/Evanston_Township_High_School'
p71
aS'http://en.wikipedia.org/wiki/University_of_St._Thomas_(Texas)'
p72
aS'http://en.wikipedia.org/wiki/Lyndon_B._Johnson_School_of_Public_Affairs'
p73
aS'http://en.wikipedia.org/wiki/Electronic_journal'
p74
aS'http://en.wikipedia.org/wiki/National_Center_for_Family_Literacy'
p75
aS'http://en.wikipedia.org/wiki/Encoded_Archival_Description'
p76
aS'http://en.wikipedia.org/wiki/Union_College_(Kentucky)'
p77
aS'http://en.wikipedia.org/wiki/Montgomery_Community_College_(North_Carolina)'
p78
aS'http://en.wikipedia.org/wiki/Yale_University'
p79
aS'http://en.wikipedia.org/wiki/Brenau_University'
p80
aS'http://en.wikipedia.org/wiki/Texas_Wesleyan_University'
p81
aS'http://en.wikipedia.org/wiki/International_Congress_of_Quantum_Chemistry'
p82
aS'http://en.wikipedia.org/wiki/Chinese_American_International_School'
p83
aS'http://en.wikipedia.org/wiki/Hochschule'
p84
aS'http://en.wikipedia.org/wiki/Latin_school'
p85
aS'http://en.wikipedia.org/wiki/Behavioral_cusp'
p86
aS'http://en.wikipedia.org/wiki/Punctum_books'
p87
aS'http://en.wikipedia.org/wiki/Greensboro_College'
p88
aS'http://en.wikipedia.org/wiki/University_of_Akron'
p89
aS'http://en.wikipedia.org/wiki/Sullivan_University'
p90
aS'http://en.wikipedia.org/wiki/Academic_Cooperation_Association'
p91
aS'http://en.wikipedia.org/wiki/Monastic_school'
p92
aS'http://en.wikipedia.org/wiki/Philosophy_of_mathematics_education'
p93
aS'http://en.wikipedia.org/wiki/Amarillo_College'
p94
aS'http://en.wikipedia.org/wiki/Liturgics'
p95
aS'http://en.wikipedia.org/wiki/Threshold_knowledge'
p96
aS'http://en.wikipedia.org/wiki/Hopkinsville_Community_College'
p97
aS'http://en.wikipedia.org/wiki/Georgia_Perimeter_College'
p98
aS'http://en.wikipedia.org/wiki/Institute_for_the_Study_of_Secularism_in_Society_and_Culture'
p99
aS'http://en.wikipedia.org/wiki/Internationalization_and_localization'
p100
aS'http://en.wikipedia.org/wiki/Postgraduate_education'
p101
aS'http://en.wikipedia.org/wiki/Shenandoah_University'
p102
aS'http://en.wikipedia.org/wiki/Academic_institution'
p103
aS'http://en.wikipedia.org/wiki/Magnet_Schools_of_America'
p104
aS'http://en.wikipedia.org/wiki/Austin_Peay_State_University'
p105
aS'http://en.wikipedia.org/wiki/Kean_University'
p106
aS'http://en.wikipedia.org/wiki/Johnson_C._Smith_University'
p107
aS'http://en.wikipedia.org/wiki/Lead_author'
p108
aS'http://en.wikipedia.org/wiki/Elliott_School_of_International_Affairs'
p109
aS'http://en.wikipedia.org/wiki/Stereoscopic_Displays_and_Applications'
p110
aS'http://en.wikipedia.org/wiki/Moscow_State_University_of_Fine_Chemical_Technologies'
p111
aS'http://en.wikipedia.org/wiki/Bildung'
p112
aS'http://en.wikipedia.org/wiki/Sam_Houston_State_University'
p113
aS'http://en.wikipedia.org/wiki/St._John_Vianney_College_Seminary'
p114
aS'http://en.wikipedia.org/wiki/Berlin_University_of_the_Arts'
p115
aS'http://en.wikipedia.org/wiki/University_of_Arizona'
p116
aS'http://en.wikipedia.org/wiki/Electracy'
p117
aS'http://en.wikipedia.org/wiki/Fachhochschule'
p118
aS'http://en.wikipedia.org/wiki/Open_peer_commentary'
p119
aS'http://en.wikipedia.org/wiki/European_Conference_on_Digital_Libraries'
p120
aS'http://en.wikipedia.org/wiki/Chattahoochee_Valley_Community_College'
p121
aS'http://en.wikipedia.org/wiki/Culturally_relevant_teaching'
p122
aS'http://en.wikipedia.org/wiki/Georgia_Tech_main_campus'
p123
aS'http://en.wikipedia.org/wiki/World_Forum_on_Energy_Regulation'
p124
aS'http://en.wikipedia.org/wiki/University_of_Illinois_system'
p125
aS'http://en.wikipedia.org/wiki/Knowledge_base'
p126
aS'http://en.wikipedia.org/wiki/LaGrange_College'
p127
aS'http://en.wikipedia.org/wiki/McMullen_Naval_History_Symposium'
p128
aS'http://en.wikipedia.org/wiki/Sexual_harassment_in_education'
p129
aS'http://en.wikipedia.org/wiki/Emmanuel_College_(Georgia)'
p130
aS'http://en.wikipedia.org/wiki/Controlled_vocabulary'
p131
aS'http://en.wikipedia.org/wiki/Texas_A%26M_University%E2%80%93Kingsville'
p132
aS'http://en.wikipedia.org/wiki/Wellington_Girls%27_College'
p133
aS'http://en.wikipedia.org/wiki/%C3%89cole_Maurice-Lavall%C3%A9e'
p134
aS'http://en.wikipedia.org/wiki/Toward_a_Science_of_Consciousness'
p135
aS'http://en.wikipedia.org/wiki/Southwest_Texas_Junior_College'
p136
aS'http://en.wikipedia.org/wiki/California_State_University,_Sacramento'
p137
aS'http://en.wikipedia.org/wiki/Edward_Waters_College'
p138
aS'http://en.wikipedia.org/wiki/University_of_Oklahoma'
p139
aS'http://en.wikipedia.org/wiki/University_of_Graz'
p140
aS'http://en.wikipedia.org/wiki/ORCID'
p141
aS'http://en.wikipedia.org/wiki/Bossier_Parish_Community_College'
p142
aS'http://en.wikipedia.org/wiki/Adult_education'
p143
aS'http://en.wikipedia.org/wiki/Interpress'
p144
aS'http://en.wikipedia.org/wiki/Arts_integration'
p145
aS'http://en.wikipedia.org/wiki/College_of_Western_Idaho'
p146
aS'http://en.wikipedia.org/wiki/Faculty_of_Arts'
p147
aS'http://en.wikipedia.org/wiki/Hex_Rally'
p148
aS'http://en.wikipedia.org/wiki/Georgetown_Leadership_Seminar'
p149
aS'http://en.wikipedia.org/wiki/Millsaps_College'
p150
aS'http://en.wikipedia.org/wiki/University_of_Sioux_Falls'
p151
aS'http://en.wikipedia.org/wiki/Chowan_University'
p152
aS'http://en.wikipedia.org/wiki/Alliant_International_University'
p153
aS'http://en.wikipedia.org/wiki/Student_study_service_(Indonesia)'
p154
aS'http://en.wikipedia.org/wiki/Chatswood_Public_School'
p155
aS'http://en.wikipedia.org/wiki/Jacksonville_State_University'
p156
aS'http://en.wikipedia.org/wiki/South_Texas_College'
p157
aS'http://en.wikipedia.org/wiki/Green_paper'
p158
aS'http://en.wikipedia.org/wiki/%C3%89cole_de_technologie_sup%C3%A9rieure'
p159
aS'http://en.wikipedia.org/wiki/International_Democratic_Education_Conference'
p160
aS'http://en.wikipedia.org/wiki/Mississippi_Valley_State_University'
p161
aS'http://en.wikipedia.org/wiki/Covenant_College'
p162
aS'http://en.wikipedia.org/wiki/Arizona_State_University'
p163
aS'http://en.wikipedia.org/wiki/The_First_Year_Experience_Program'
p164
aS'http://en.wikipedia.org/wiki/St._Petersburg_College'
p165
aS'http://en.wikipedia.org/wiki/International_Conference_on_Conceptual_Modeling'
p166
aS'http://en.wikipedia.org/wiki/Diversity_training'
p167
aS'http://en.wikipedia.org/wiki/Seven_stages_of_action'
p168
aS'http://en.wikipedia.org/wiki/Style_guide'
p169
aS'http://en.wikipedia.org/wiki/Conceptualization_(information_science)'
p170
aS'http://en.wikipedia.org/wiki/Transfer_credit'
p171
aS'http://en.wikipedia.org/wiki/Anti-oppressive_education'
p172
aS'http://en.wikipedia.org/wiki/Pacific_Health_Summit'
p173
aS'http://en.wikipedia.org/wiki/Collegiate_Network'
p174
aS'http://en.wikipedia.org/wiki/Blinn_College'
p175
aS'http://en.wikipedia.org/wiki/FUTON_bias'
p176
aS'http://en.wikipedia.org/wiki/University_of_Memphis'
p177
aS'http://en.wikipedia.org/wiki/Georgetown_College'
p178
aS'http://en.wikipedia.org/wiki/University_of_Maine'
p179
aS'http://en.wikipedia.org/wiki/Emile,_or_On_Education'
p180
aS'http://en.wikipedia.org/wiki/Lander_University'
p181
aS'http://en.wikipedia.org/wiki/Universidad_Veracruzana'
p182
aS'http://en.wikipedia.org/wiki/Universit%C3%A9_du_Qu%C3%A9bec'
p183
aS'http://en.wikipedia.org/wiki/Coastal_Carolina_University'
p184
aS'http://en.wikipedia.org/wiki/Document_modelling'
p185
aS'http://en.wikipedia.org/wiki/European_Institute_of_High_International_Studies'
p186
aS'http://en.wikipedia.org/wiki/Suzuki_method'
p187
aS'http://en.wikipedia.org/wiki/University_of_California,_Los_Angeles'
p188
aS'http://en.wikipedia.org/wiki/Universal_design_for_instruction'
p189
aS'http://en.wikipedia.org/wiki/European_Summer_School_in_Logic,_Language_and_Information'
p190
aS'http://en.wikipedia.org/wiki/Jorhat_Govt._Boys%27_H.S_and_M.P._School'
p191
aS'http://en.wikipedia.org/wiki/Education_For_All'
p192
aS'http://en.wikipedia.org/wiki/School_life_expectancy'
p193
aS'http://en.wikipedia.org/wiki/George_Washington_University'
p194
aS'http://en.wikipedia.org/wiki/University_of_Arkansas_for_Medical_Sciences'
p195
aS'http://en.wikipedia.org/wiki/Quadrivium'
p196
aS'http://en.wikipedia.org/wiki/Community_colleges_in_the_United_States'
p197
aS'http://en.wikipedia.org/wiki/University_of_Southern_California'
p198
aS'http://en.wikipedia.org/wiki/Polytechnic_University_of_Valencia'
p199
aS'http://en.wikipedia.org/wiki/Notre_Dame_Seminary'
p200
aS'http://en.wikipedia.org/wiki/Lees%E2%80%93McRae_College'
p201
aS'http://en.wikipedia.org/wiki/University_at_Buffalo_Libraries'
p202
aS'http://en.wikipedia.org/wiki/SourceOECD'
p203
aS'http://en.wikipedia.org/wiki/Work_college'
p204
aS'http://en.wikipedia.org/wiki/Patrick_Henry_Community_College'
p205
aS'http://en.wikipedia.org/wiki/Liberal_education'
p206
aS'http://en.wikipedia.org/wiki/Interaction_Design_Foundation'
p207
aS'http://en.wikipedia.org/wiki/Center_for_the_Sociology_of_Organizations'
p208
aS'http://en.wikipedia.org/wiki/Piedmont_Technical_College'
p209
aS'http://en.wikipedia.org/wiki/Bridgewater_College'
p210
aS'http://en.wikipedia.org/wiki/Truett-McConnell_College'
p211
aS'http://en.wikipedia.org/wiki/University_of_Louisiana_at_Lafayette'
p212
aS'http://en.wikipedia.org/wiki/Boyce_College'
p213
aS'http://en.wikipedia.org/wiki/Philippine_Youth_Congress_in_Information_Technology'
p214
aS'http://en.wikipedia.org/wiki/Global_information_management_Metrics_eXchange'
p215
aS'http://en.wikipedia.org/wiki/New_Orleans_Baptist_Theological_Seminary'
p216
aS'http://en.wikipedia.org/wiki/Columbus_State_University'
p217
aS'http://en.wikipedia.org/wiki/HINARI'
p218
aS'http://en.wikipedia.org/wiki/University_of_Texas%E2%80%93Pan_American'
p219
aS'http://en.wikipedia.org/wiki/Student_syndrome'
p220
aS'http://en.wikipedia.org/wiki/Open-source_curriculum'
p221
aS'http://en.wikipedia.org/wiki/Wayne_State_University'
p222
aS'http://en.wikipedia.org/wiki/Bluegrass_Community_and_Technical_College'
p223
aS'http://en.wikipedia.org/wiki/Midland_College'
p224
aS'http://en.wikipedia.org/wiki/National_University_of_Kyiv-Mohyla_Academy'
p225
aS'http://en.wikipedia.org/wiki/University_of_Virginia'
p226
aS'http://en.wikipedia.org/wiki/Dyersburg_State_Community_College'
p227
aS'http://en.wikipedia.org/wiki/Digital_Media_Arts_College'
p228
aS'http://en.wikipedia.org/wiki/Seminole_State_College_of_Florida'
p229
aS'http://en.wikipedia.org/wiki/University_of_Texas_Southwestern_Medical_Center'
p230
aS'http://en.wikipedia.org/wiki/Idaho_State_University'
p231
aS'http://en.wikipedia.org/wiki/Southern_University_Law_Center'
p232
aS'http://en.wikipedia.org/wiki/Horry_County_Schools'
p233
aS'http://en.wikipedia.org/wiki/Wayne_College'
p234
aS'http://en.wikipedia.org/wiki/University_of_North_Carolina_at_Pembroke'
p235
aS'http://en.wikipedia.org/wiki/Texas_Chiropractic_College'
p236
aS'http://en.wikipedia.org/wiki/Southwest_Virginia_Community_College'
p237
aS'http://en.wikipedia.org/wiki/Alcorn_State_University'
p238
aS'http://en.wikipedia.org/wiki/Nunez_Community_College'
p239
aS'http://en.wikipedia.org/wiki/University_of_Alabama_at_Birmingham'
p240
aS'http://en.wikipedia.org/wiki/Formal_Approaches_to_Slavic_Linguistics'
p241
aS'http://en.wikipedia.org/wiki/Journal_of_Philosophy_of_Education'
p242
aS'http://en.wikipedia.org/wiki/Wichita_State_University'
p243
aS'http://en.wikipedia.org/wiki/University_of_Texas_Health_Science_Center_at_San_Antonio'
p244
aS'http://en.wikipedia.org/wiki/Of_Education'
p245
aS'http://en.wikipedia.org/wiki/Community_education'
p246
aS'http://en.wikipedia.org/wiki/Percy_Hughes'
p247
aS'http://en.wikipedia.org/wiki/Babcock_Graduate_School_of_Management'
p248
aS'http://en.wikipedia.org/wiki/101_(term)'
p249
aS'http://en.wikipedia.org/wiki/Singapore_International_Water_Week'
p250
aS'http://en.wikipedia.org/wiki/ALTO_(XML)'
p251
aS'http://en.wikipedia.org/wiki/Flexible_modular_scheduling'
p252
aS'http://en.wikipedia.org/wiki/Submission_management'
p253
aS'http://en.wikipedia.org/wiki/Virtual_internship'
p254
aS'http://en.wikipedia.org/wiki/Lifelong_learning'
p255
aS'http://en.wikipedia.org/wiki/Rutgers_University'
p256
aS'http://en.wikipedia.org/wiki/McDonald_Observatory'
p257
aS'http://en.wikipedia.org/wiki/Northwest_Mississippi_Community_College'
p258
aS'http://en.wikipedia.org/wiki/Stage_(cooking)'
p259
aS'http://en.wikipedia.org/wiki/King_Edward_VI_Camp_Hill_School_for_Boys'
p260
aS'http://en.wikipedia.org/wiki/Marmara_University'
p261
aS'http://en.wikipedia.org/wiki/University_of_West_Alabama'
p262
aS'http://en.wikipedia.org/wiki/SimpleDL'
p263
aS'http://en.wikipedia.org/wiki/Jacksonville_College'
p264
aS'http://en.wikipedia.org/wiki/University_of_Houston_System'
p265
aS'http://en.wikipedia.org/wiki/Morgantown_High_School'
p266
aS'http://en.wikipedia.org/wiki/Ecclesiastical_university'
p267
aS'http://en.wikipedia.org/wiki/Pennsylvania_State_University'
p268
aS'http://en.wikipedia.org/wiki/Long_Center_for_the_Performing_Arts'
p269
aS'http://en.wikipedia.org/wiki/Workshop_on_Structure_and_Constituency_in_Languages_of_the_Americas'
p270
aS'http://en.wikipedia.org/wiki/Winthrop_University'
p271
aS'http://en.wikipedia.org/wiki/Loop_(education)'
p272
aS'http://en.wikipedia.org/wiki/Public_interest_design'
p273
aS'http://en.wikipedia.org/wiki/Palm_Beach_Atlantic_University'
p274
aS'http://en.wikipedia.org/wiki/Jurisprudence'
p275
aS'http://en.wikipedia.org/wiki/Western_Texas_College'
p276
aS'http://en.wikipedia.org/wiki/Chattahoochee_Technical_College'
p277
aS'http://en.wikipedia.org/wiki/Quad_chart'
p278
aS'http://en.wikipedia.org/wiki/Competency-based_learning'
p279
aS'http://en.wikipedia.org/wiki/Dars-i_Nizami'
p280
aS'http://en.wikipedia.org/wiki/University_of_Colorado_Denver'
p281
aS'http://en.wikipedia.org/wiki/Azarbaijan_Shahid_Madani_University'
p282
aS'http://en.wikipedia.org/wiki/ICAANE'
p283
aS'http://en.wikipedia.org/wiki/Cooperative_learning'
p284
aS'http://en.wikipedia.org/wiki/Monterrey_Institute_of_Technology_and_Higher_Education'
p285
aS'http://en.wikipedia.org/wiki/Purdue_University'
p286
aS'http://en.wikipedia.org/wiki/New_Mexico_State_University'
p287
aS'http://en.wikipedia.org/wiki/University_of_Nevada,_Las_Vegas'
p288
aS'http://en.wikipedia.org/wiki/Politics_in_education'
p289
aS'http://en.wikipedia.org/wiki/East_Georgia_State_College'
p290
aS'http://en.wikipedia.org/wiki/Collin_College'
p291
aS'http://en.wikipedia.org/wiki/Southern_University'
p292
aS'http://en.wikipedia.org/wiki/Pacific_Union_College'
p293
aS'http://en.wikipedia.org/wiki/American_University_in_Dubai'
p294
aS'http://en.wikipedia.org/wiki/University_of_Texas_at_Tyler'
p295
aS'http://en.wikipedia.org/wiki/Voluntary_System_of_Accountability'
p296
aS'http://en.wikipedia.org/wiki/Children%27s_Film_Unit'
p297
aS'http://en.wikipedia.org/wiki/J._Frank_Dobie_House'
p298
aS'http://en.wikipedia.org/wiki/Dumbing_down'
p299
aS'http://en.wikipedia.org/wiki/Academic_journal_publishing_reform'
p300
aS'http://en.wikipedia.org/wiki/Charles_III_University_of_Madrid'
p301
aS'http://en.wikipedia.org/wiki/Lambuth_University'
p302
aS'http://en.wikipedia.org/wiki/Center_for_Internet_Research'
p303
aS'http://en.wikipedia.org/wiki/Robeson_Community_College'
p304
aS'http://en.wikipedia.org/wiki/Arts_Party'
p305
aS'http://en.wikipedia.org/wiki/Form_(education)'
p306
aS'http://en.wikipedia.org/wiki/In_Schools_We_Trust'
p307
aS'http://en.wikipedia.org/wiki/National_Endowment_for_Financial_Education'
p308
aS'http://en.wikipedia.org/wiki/University_of_Tennessee'
p309
aS'http://en.wikipedia.org/wiki/ROARMAP'
p310
aS'http://en.wikipedia.org/wiki/Tejas_Club'
p311
aS'http://en.wikipedia.org/wiki/Institutional_research'
p312
aS'http://en.wikipedia.org/wiki/Palm_Beach_State_College'
p313
aS'http://en.wikipedia.org/wiki/Berea_College'
p314
aS'http://en.wikipedia.org/wiki/Lund_University'
p315
aS'http://en.wikipedia.org/wiki/EdCamp'
p316
aS'http://en.wikipedia.org/wiki/Student_exchange_program'
p317
aS'http://en.wikipedia.org/wiki/University_of_Texas_Medical_Branch'
p318
aS'http://en.wikipedia.org/wiki/University_of_Wisconsin%E2%80%93Madison'
p319
aS'http://en.wikipedia.org/wiki/Flagler_College'
p320
aS'http://en.wikipedia.org/wiki/Key_Stage_5'
p321
aS'http://en.wikipedia.org/wiki/Key_Stage_4'
p322
aS'http://en.wikipedia.org/wiki/Key_Stage_3'
p323
aS'http://en.wikipedia.org/wiki/Key_Stage_2'
p324
aS'http://en.wikipedia.org/wiki/Baptist_College_of_Health_Sciences'
p325
aS'http://en.wikipedia.org/wiki/Unidad_Valle_De_Las_Palmas'
p326
aS'http://en.wikipedia.org/wiki/University_of_Las_Palmas_de_Gran_Canaria'
p327
aS'http://en.wikipedia.org/wiki/History_of_personal_learning_environments'
p328
aS'http://en.wikipedia.org/wiki/Technical_University_of_Berlin'
p329
aS'http://en.wikipedia.org/wiki/Meridian_Community_College'
p330
aS'http://en.wikipedia.org/wiki/Central_Model_School,_Lahore'
p331
aS'http://en.wikipedia.org/wiki/Pumbedita_Academy'
p332
aS'http://en.wikipedia.org/wiki/Savannah_Technical_College'
p333
aS'http://en.wikipedia.org/wiki/University_of_Houston'
p334
aS'http://en.wikipedia.org/wiki/Collegiate_university'
p335
aS'http://en.wikipedia.org/wiki/University_of_Texas_System'
p336
aS'http://en.wikipedia.org/wiki/Wake_Forest_University'
p337
aS'http://en.wikipedia.org/wiki/Davidson_College'
p338
aS'http://en.wikipedia.org/wiki/William_Pinar'
p339
aS'http://en.wikipedia.org/wiki/University_of_Puerto_Rico_at_Mayag%C3%BCez'
p340
aS'http://en.wikipedia.org/wiki/Oldest_public_university_in_the_United_States'
p341
aS'http://en.wikipedia.org/wiki/MacEwan_University'
p342
aS'http://en.wikipedia.org/wiki/Sci-Mate'
p343
aS'http://en.wikipedia.org/wiki/Tsarskoye_Selo_Lyceum'
p344
aS'http://en.wikipedia.org/wiki/Ecole_et_Observatoire_des_Sciences_de_la_Terre'
p345
aS'http://en.wikipedia.org/wiki/Doing_Good_and_Doing_Well'
p346
aS'http://en.wikipedia.org/wiki/Robert_C._Vance_Distinguished_Lecture_Series'
p347
aS'http://en.wikipedia.org/wiki/Early_college_high_school'
p348
aS'http://en.wikipedia.org/wiki/Benem%C3%A9rita_Universidad_Aut%C3%B3noma_de_Puebla'
p349
aS'http://en.wikipedia.org/wiki/Trivium'
p350
aS'http://en.wikipedia.org/wiki/H-index'
p351
aS'http://en.wikipedia.org/wiki/Cooling_out'
p352
aS'http://en.wikipedia.org/wiki/University_of_Maryland,_College_Park'
p353
aS'http://en.wikipedia.org/wiki/Transylvania_University'
p354
aS'http://en.wikipedia.org/wiki/Berry_College'
p355
aS'http://en.wikipedia.org/wiki/Connectivism'
p356
aS'http://en.wikipedia.org/wiki/Higher_education'
p357
aS'http://en.wikipedia.org/wiki/Campus_rape'
p358
aS'http://en.wikipedia.org/wiki/Arts_administration'
p359
aS'http://en.wikipedia.org/wiki/International_Pathogenic_Neisseria_Conference'
p360
aS'http://en.wikipedia.org/wiki/Coastal_Carolina_Community_College'
p361
aS'http://en.wikipedia.org/wiki/Gateway_Community_and_Technical_College'
p362
aS'http://en.wikipedia.org/wiki/National_Service_Learning_Conference'
p363
aS'http://en.wikipedia.org/wiki/Texas_A%26M_University%E2%80%93San_Antonio'
p364
aS'http://en.wikipedia.org/wiki/University_of_Texas_at_Arlington'
p365
aS'http://en.wikipedia.org/wiki/World_Universities_Peace_Invitational_Debate'
p366
aS'http://en.wikipedia.org/wiki/HighScope'
p367
aS'http://en.wikipedia.org/wiki/Datasheet'
p368
aS'http://en.wikipedia.org/wiki/Lie-to-children'
p369
aS'http://en.wikipedia.org/wiki/Polytechnic_University_of_Puerto_Rico'
p370
aS'http://en.wikipedia.org/wiki/South_Louisiana_Community_College'
p371
aS'http://en.wikipedia.org/wiki/Gov_2.0_Summit'
p372
aS'http://en.wikipedia.org/wiki/North_Florida_Community_College'
p373
aS'http://en.wikipedia.org/wiki/Elizabethtown_Community_and_Technical_College'
p374
aS'http://en.wikipedia.org/wiki/Oklahoma_State_University%E2%80%93Stillwater'
p375
aS'http://en.wikipedia.org/wiki/Mercer_University'
p376
aS'http://en.wikipedia.org/wiki/Duke_University'
p377
aS'http://en.wikipedia.org/wiki/University_of_South_Carolina_Upstate'
p378
aS'http://en.wikipedia.org/wiki/Adventist_University_of_Health_Sciences'
p379
aS'http://en.wikipedia.org/wiki/Year_Up'
p380
aS'http://en.wikipedia.org/wiki/International_Disaster_and_Risk_Conference'
p381
aS'http://en.wikipedia.org/wiki/Clear_Creek_Baptist_Bible_College'
p382
aS'http://en.wikipedia.org/wiki/Fran%C3%A7ois_Rabelais_University'
p383
aS'http://en.wikipedia.org/wiki/Jefferson_College_of_Health_Sciences'
p384
aS'http://en.wikipedia.org/wiki/Match_report'
p385
aS'http://en.wikipedia.org/wiki/University_of_Waikato'
p386
aS'http://en.wikipedia.org/wiki/University_of_Connecticut'
p387
aS'http://en.wikipedia.org/wiki/Pit_school'
p388
aS'http://en.wikipedia.org/wiki/Voorhees_College'
p389
aS'http://en.wikipedia.org/wiki/Lake%E2%80%93Sumter_State_College'
p390
aS'http://en.wikipedia.org/wiki/Houston_Baptist_University'
p391
aS'http://en.wikipedia.org/wiki/Abacus_school'
p392
aS'http://en.wikipedia.org/wiki/Huron_University'
p393
aS'http://en.wikipedia.org/wiki/Ibrahim_Jabary'
p394
aS'http://en.wikipedia.org/wiki/Nashville_School_of_Law'
p395
aS'http://en.wikipedia.org/wiki/Art_history'
p396
aS'http://en.wikipedia.org/wiki/Lane_College'
p397
aS'http://en.wikipedia.org/wiki/John_Tyler_Community_College'
p398
aS'http://en.wikipedia.org/wiki/University_of_Tabriz'
p399
aS'http://en.wikipedia.org/wiki/Blue_Ridge_Community_College_(Virginia)'
p400
aS'http://en.wikipedia.org/wiki/Dance_education'
p401
aS'http://en.wikipedia.org/wiki/Columbus_Technical_College'
p402
aS'http://en.wikipedia.org/wiki/Southeast_Kentucky_Community_and_Technical_College'
p403
aS'http://en.wikipedia.org/wiki/Medical_entomology'
p404
aS'http://en.wikipedia.org/wiki/Cleveland_Community_College'
p405
aS'http://en.wikipedia.org/wiki/Angelina_College'
p406
aS'http://en.wikipedia.org/wiki/University_of_San_Diego'
p407
aS'http://en.wikipedia.org/wiki/Universidad_Iberoamericana'
p408
aS'http://en.wikipedia.org/wiki/Advanced_Distributed_Learning'
p409
aS'http://en.wikipedia.org/wiki/Georgia_Military_College'
p410
aS'http://en.wikipedia.org/wiki/Georgia_Highlands_College'
p411
aS'http://en.wikipedia.org/wiki/University_of_Alabama_System'
p412
aS'http://en.wikipedia.org/wiki/World_Hydrogen_Energy_Conference'
p413
aS'http://en.wikipedia.org/wiki/The_Equity_Project'
p414
aS'http://en.wikipedia.org/wiki/Internationalization_Tag_Set'
p415
aS'http://en.wikipedia.org/wiki/Northeastern_Illinois_University'
p416
aS'http://en.wikipedia.org/wiki/Central_American_Technological_University'
p417
aS'http://en.wikipedia.org/wiki/Embry%E2%80%93Riddle_Aeronautical_University'
p418
aS'http://en.wikipedia.org/wiki/Freshman_Research_Initiative'
p419
aS'http://en.wikipedia.org/wiki/Curriculum_theory'
p420
aS'http://en.wikipedia.org/wiki/Australia_2020_Summit'
p421
aS'http://en.wikipedia.org/wiki/Shady_Side_Academy'
p422
aS'http://en.wikipedia.org/wiki/AMM_%E2%80%93_Association_for_Machines_and_Mechanisms'
p423
aS'http://en.wikipedia.org/wiki/Kyoto_Consortium_for_Japanese_Studies'
p424
aS'http://en.wikipedia.org/wiki/Guilford_College'
p425
aS'http://en.wikipedia.org/wiki/University_of_New_Hampshire'
p426
aS'http://en.wikipedia.org/wiki/Lee_College'
p427
aS'http://en.wikipedia.org/wiki/Aluka'
p428
aS'http://en.wikipedia.org/wiki/Autonomous_University_of_Barcelona'
p429
aS'http://en.wikipedia.org/wiki/Oklahoma_State_Regents_for_Higher_Education'
p430
aS'http://en.wikipedia.org/wiki/The_Review_of_Litigation'
p431
aS'http://en.wikipedia.org/wiki/Acknowledgment_(creative_arts_and_sciences)'
p432
aS'http://en.wikipedia.org/wiki/Immediacy_index'
p433
aS'http://en.wikipedia.org/wiki/Contact_Conference'
p434
aS'http://en.wikipedia.org/wiki/Indigenous_education'
p435
aS'http://en.wikipedia.org/wiki/Sixteenth_Century_Society_and_Conference'
p436
aS'http://en.wikipedia.org/wiki/Southern_Illinois_University_Edwardsville'
p437
aS'http://en.wikipedia.org/wiki/Clemson_University'
p438
aS'http://en.wikipedia.org/wiki/Association_for_Asian_Performance'
p439
aS'http://en.wikipedia.org/wiki/University_of_Calgary'
p440
aS'http://en.wikipedia.org/wiki/Fact_sheet'
p441
aS'http://en.wikipedia.org/wiki/Stony_Brook_University'
p442
aS'http://en.wikipedia.org/wiki/University_of_South_Carolina'
p443
aS'http://en.wikipedia.org/wiki/Sand_table'
p444
aS'http://en.wikipedia.org/wiki/Wallace_State_Community_College'
p445
aS'http://en.wikipedia.org/wiki/Pace_University'
p446
aS'http://en.wikipedia.org/wiki/Laramie_County_Community_College'
p447
aS'http://en.wikipedia.org/wiki/Sloyd'
p448
aS'http://en.wikipedia.org/wiki/Columbia_Theological_Seminary'
p449
aS'http://en.wikipedia.org/wiki/Lean_higher_education'
p450
aS'http://en.wikipedia.org/wiki/Agnes_Scott_College'
p451
aS'http://en.wikipedia.org/wiki/Spartanburg_Community_College'
p452
aS'http://en.wikipedia.org/wiki/International_Wittgenstein_Symposium'
p453
aS'http://en.wikipedia.org/wiki/Remove_(education)'
p454
aS'http://en.wikipedia.org/wiki/Southeastern_University_(Florida)'
p455
aS'http://en.wikipedia.org/wiki/University_of_Texas_School_of_Law'
p456
aS'http://en.wikipedia.org/wiki/Meetings,_incentives,_conferencing,_exhibitions'
p457
aS'http://en.wikipedia.org/wiki/Murray_State_University'
p458
aS'http://en.wikipedia.org/wiki/Component_content_management_system'
p459
aS'http://en.wikipedia.org/wiki/Sensory_room'
p460
aS'http://en.wikipedia.org/wiki/Florida_Gulf_Coast_University'
p461
aS'http://en.wikipedia.org/wiki/University_of_Massachusetts'
p462
aS'http://en.wikipedia.org/wiki/Sungkyunkwan_University'
p463
aS'http://en.wikipedia.org/wiki/University_of_North_Carolina_at_Greensboro'
p464
aS'http://en.wikipedia.org/wiki/Internship'
p465
aS'http://en.wikipedia.org/wiki/Marymount_University'
p466
aS'http://en.wikipedia.org/wiki/Motueka_High_School'
p467
aS'http://en.wikipedia.org/wiki/Semantic_interoperability'
p468
aS'http://en.wikipedia.org/wiki/PDCP_College_Basaith_Benipatti'
p469
aS'http://en.wikipedia.org/wiki/A-b-c-darian'
p470
aS'http://en.wikipedia.org/wiki/Reading_specialist_certification'
p471
aS'http://en.wikipedia.org/wiki/Maturationism'
p472
aS'http://en.wikipedia.org/wiki/Andrew_College'
p473
aS'http://en.wikipedia.org/wiki/Judson_College_(Alabama)'
p474
aS'http://en.wikipedia.org/wiki/College_of_Arts_and_Sciences'
p475
aS'http://en.wikipedia.org/wiki/St._Catharine_College'
p476
aS'http://en.wikipedia.org/wiki/OPeNDAP'
p477
aS'http://en.wikipedia.org/wiki/Vance%E2%80%93Granville_Community_College'
p478
aS'http://en.wikipedia.org/wiki/Barcampbank'
p479
aS'http://en.wikipedia.org/wiki/Teaching_for_social_justice'
p480
aS'http://en.wikipedia.org/wiki/Linguistic_Imperialism'
p481
aS'http://en.wikipedia.org/wiki/Texas_Tech_University_System'
p482
aS'http://en.wikipedia.org/wiki/Deborah_Meier'
p483
aS'http://en.wikipedia.org/wiki/Widening_participation'
p484
aS'http://en.wikipedia.org/wiki/Digital_scholarship'
p485
aS'http://en.wikipedia.org/wiki/Budapest_University_of_Technology_and_Economics'
p486
aS'http://en.wikipedia.org/wiki/Life_University'
p487
aS'http://en.wikipedia.org/wiki/Monographic_series'
p488
aS'http://en.wikipedia.org/wiki/Accuracy_in_Academia'
p489
aS'http://en.wikipedia.org/wiki/Grey_Literature_Network_Service'
p490
aS'http://en.wikipedia.org/wiki/Rockingham_Community_College'
p491
aS'http://en.wikipedia.org/wiki/California_State_University'
p492
aS'http://en.wikipedia.org/wiki/Paul_M._Hebert_Law_Center'
p493
aS'http://en.wikipedia.org/wiki/Period_(school)'
p494
aS'http://en.wikipedia.org/wiki/University_of_Iowa'
p495
aS'http://en.wikipedia.org/wiki/Practitioner_research'
p496
aS'http://en.wikipedia.org/wiki/DITA_Open_Toolkit'
p497
aS'http://en.wikipedia.org/wiki/Dallas_Theological_Seminary'
p498
aS'http://en.wikipedia.org/wiki/Matriculation_examination'
p499
aS'http://en.wikipedia.org/wiki/Brock_University'
p500
aS'http://en.wikipedia.org/wiki/Craven_Community_College'
p501
aS'http://en.wikipedia.org/wiki/Talladega_College'
p502
aS'http://en.wikipedia.org/wiki/Understanding_by_Design'
p503
aS'http://en.wikipedia.org/wiki/Rockefeller_University'
p504
aS'http://en.wikipedia.org/wiki/University_of_West_Georgia'
p505
aS'http://en.wikipedia.org/wiki/Faulkner_State_Community_College'
p506
aS'http://en.wikipedia.org/wiki/Mumasy'
p507
aS'http://en.wikipedia.org/wiki/Technical_Trainer'
p508
aS'http://en.wikipedia.org/wiki/Johnston_Community_College'
p509
aS'http://en.wikipedia.org/wiki/Technical_University_of_Madrid'
p510
aS'http://en.wikipedia.org/wiki/Canadian_Bureau_for_International_Education'
p511
aS'http://en.wikipedia.org/wiki/University_of_the_Cumberlands'
p512
aS'http://en.wikipedia.org/wiki/Lamar_University_College_of_Engineering'
p513
aS'http://en.wikipedia.org/wiki/Star_Island'
p514
aS'http://en.wikipedia.org/wiki/100_Computing_Lessons'
p515
aS'http://en.wikipedia.org/wiki/Morris_College'
p516
aS'http://en.wikipedia.org/wiki/Syllabus'
p517
aS'http://en.wikipedia.org/wiki/Clayton_State_University'
p518
aS'http://en.wikipedia.org/wiki/International_Symposium_on_Circuits_and_Systems'
p519
aS'http://en.wikipedia.org/wiki/American_Nicaraguan_School'
p520
aS'http://en.wikipedia.org/wiki/Barry_University'
p521
aS'http://en.wikipedia.org/wiki/University_of_Massachusetts_Boston'
p522
aS'http://en.wikipedia.org/wiki/Cornell_University'
p523
aS'http://en.wikipedia.org/wiki/Redeemer_Seminary'
p524
aS'http://en.wikipedia.org/wiki/Ohio_University'
p525
aS'http://en.wikipedia.org/wiki/Toccoa_Falls_College'
p526
aS'http://en.wikipedia.org/wiki/Brandeis_University'
p527
aS'http://en.wikipedia.org/wiki/Carolinas_College_of_Health_Sciences'
p528
aS'http://en.wikipedia.org/wiki/Barton_Springs_Pool'
p529
aS'http://en.wikipedia.org/wiki/Universidad_de_Monterrey'
p530
aS'http://en.wikipedia.org/wiki/Columbia_University'
p531
aS'http://en.wikipedia.org/wiki/Tashkent_Islamic_University'
p532
aS'http://en.wikipedia.org/wiki/Education_in_the_Crown_dependencies'
p533
aS'http://en.wikipedia.org/wiki/Music_school'
p534
aS'http://en.wikipedia.org/wiki/Open_learning'
p535
aS'http://en.wikipedia.org/wiki/Individual_Education'
p536
aS'http://en.wikipedia.org/wiki/Howard_Payne_University'
p537
aS'http://en.wikipedia.org/wiki/Texas_State_Capitol'
p538
aS'http://en.wikipedia.org/wiki/Interprofessional_education'
p539
aS'http://en.wikipedia.org/wiki/Autonomous_University_of_Coahuila'
p540
aS'http://en.wikipedia.org/wiki/Experience_and_Education_(book)'
p541
aS'http://en.wikipedia.org/wiki/Georgia_State_University'
p542
aS'http://en.wikipedia.org/wiki/Calendar_(archives)'
p543
aS'http://en.wikipedia.org/wiki/Southern_College_of_Optometry'
p544
aS'http://en.wikipedia.org/wiki/Amistad_Onus'
p545
aS'http://en.wikipedia.org/wiki/University_of_North_Alabama'
p546
aS'http://en.wikipedia.org/wiki/Affect_in_education'
p547
aS'http://en.wikipedia.org/wiki/Middle_East_Technical_University_Northern_Cyprus_Campus'
p548
aS'http://en.wikipedia.org/wiki/Tawse'
p549
aS'http://en.wikipedia.org/wiki/Universal_Design_for_Learning'
p550
aS'http://en.wikipedia.org/wiki/La_Salle_Military_Academy'
p551
aS'http://en.wikipedia.org/wiki/Nobel_Conference'
p552
aS'http://en.wikipedia.org/wiki/Marine_Corps_War_College'
p553
aS'http://en.wikipedia.org/wiki/Central_Alabama_Community_College'
p554
aS'http://en.wikipedia.org/wiki/International_Indonesia_Forum'
p555
aS'http://en.wikipedia.org/wiki/Junior_college'
p556
aS'http://en.wikipedia.org/wiki/Seton_Hill_University'
p557
aS'http://en.wikipedia.org/wiki/Criswell_College'
p558
aS'http://en.wikipedia.org/wiki/Private_university'
p559
aS'http://en.wikipedia.org/wiki/Art_Museum_Image_Consortium'
p560
aS'http://en.wikipedia.org/wiki/Tougaloo_College'
p561
aS'http://en.wikipedia.org/wiki/Summer_Undergraduate_Research_Fellowship'
p562
aS'http://en.wikipedia.org/wiki/Cape_Fear_Community_College'
p563
aS'http://en.wikipedia.org/wiki/William_S._Richardson_School_of_Law'
p564
aS'http://en.wikipedia.org/wiki/Reprint'
p565
aS'http://en.wikipedia.org/wiki/Ivy_Tech_Community_College_of_Indiana'
p566
aS'http://en.wikipedia.org/wiki/University_of_Rhode_Island'
p567
aS'http://en.wikipedia.org/wiki/St._Andrews_University_(North_Carolina)'
p568
aS'http://en.wikipedia.org/wiki/Girl_Talk_Inc.'
p569
aS'http://en.wikipedia.org/wiki/Columbia_State_Community_College'
p570
aS'http://en.wikipedia.org/wiki/University_of_Mary_Hardin%E2%80%93Baylor'
p571
aS'http://en.wikipedia.org/wiki/Lord_Fairfax_Community_College'
p572
aS'http://en.wikipedia.org/wiki/Secular_education'
p573
aS'http://en.wikipedia.org/wiki/Presidential_Summit_on_Entrepreneurship'
p574
aS'http://en.wikipedia.org/wiki/Michigan_State_University'
p575
aS'http://en.wikipedia.org/wiki/Temple_University'
p576
aS'http://en.wikipedia.org/wiki/Congress_of_Black_Writers_and_Artists'
p577
aS'http://en.wikipedia.org/wiki/American_University'
p578
aS'http://en.wikipedia.org/wiki/Process_development_execution_system'
p579
aS'http://en.wikipedia.org/wiki/Education_outreach'
p580
aS'http://en.wikipedia.org/wiki/CrossRef'
p581
aS'http://en.wikipedia.org/wiki/Texas_A%26M_University%E2%80%93Texarkana'
p582
aS'http://en.wikipedia.org/wiki/Bishop_State_Community_College'
p583
aS'http://en.wikipedia.org/wiki/International_Conference_of_Laser_Applications'
p584
aS'http://en.wikipedia.org/wiki/People_Finder_Interchange_Format'
p585
aS'http://en.wikipedia.org/wiki/M._Peter_McPherson'
p586
aS'http://en.wikipedia.org/wiki/Texas_Memorial_Museum'
p587
aS'http://en.wikipedia.org/wiki/IIIEE'
p588
aS'http://en.wikipedia.org/wiki/Borlaug_Dialogue'
p589
aS'http://en.wikipedia.org/wiki/Cusp_Conference'
p590
aS'http://en.wikipedia.org/wiki/Universidad_Aut%C3%B3noma_de_Nuevo_Le%C3%B3n'
p591
aS'http://en.wikipedia.org/wiki/Northwestern_State_University'
p592
aS'http://en.wikipedia.org/wiki/Learning_development'
p593
aS'http://en.wikipedia.org/wiki/Reggio_Emilia_approach'
p594
aS'http://en.wikipedia.org/wiki/Washington_University_in_St._Louis'
p595
aS'http://en.wikipedia.org/wiki/Waitaki_Boys%27_High_School'
p596
aS'http://en.wikipedia.org/wiki/Manhattanville_College'
p597
aS'http://en.wikipedia.org/wiki/Centenary_College_of_Louisiana'
p598
aS'http://en.wikipedia.org/wiki/Interamerican_University_of_Puerto_Rico_at_Ponce'
p599
aS'http://en.wikipedia.org/wiki/Escuela_Superior_Politecnica_del_Litoral'
p600
aS'http://en.wikipedia.org/wiki/English_writing_style'
p601
aS'http://en.wikipedia.org/wiki/Prussian_education_system'
p602
aS'http://en.wikipedia.org/wiki/Ontology_engineering'
p603
aS'http://en.wikipedia.org/wiki/Simply_Music'
p604
aS'http://en.wikipedia.org/wiki/Education_Otherwise'
p605
aS'http://en.wikipedia.org/wiki/Survey_article'
p606
aS'http://en.wikipedia.org/wiki/Postgraduate_research'
p607
aS'http://en.wikipedia.org/wiki/European_Higher_Education_Area'
p608
aS'http://en.wikipedia.org/wiki/Seminar_of_Amateur_composers'
p609
aS'http://en.wikipedia.org/wiki/ICOPMAS'
p610
aS'http://en.wikipedia.org/wiki/LeTourneau_University'
p611
aS'http://en.wikipedia.org/wiki/University_of_Texas_MD_Anderson_Cancer_Center'
p612
aS'http://en.wikipedia.org/wiki/University_of_Texas_at_Austin'
p613
aS'http://en.wikipedia.org/wiki/Tennessee_State_University'
p614
aS'http://en.wikipedia.org/wiki/Christie%27s_Education'
p615
aS'http://en.wikipedia.org/wiki/University_of_Alaska_Fairbanks'
p616
aS'http://en.wikipedia.org/wiki/Thomas_More_College_(Kentucky)'
p617
aS'http://en.wikipedia.org/wiki/Texas_A%26M_International_University'
p618
aS'http://en.wikipedia.org/wiki/Hillsborough_Community_College'
p619
aS'http://en.wikipedia.org/wiki/Public_university'
p620
aS'http://en.wikipedia.org/wiki/Temple_College'
p621
aS'http://en.wikipedia.org/wiki/RTFB'
p622
aS'http://en.wikipedia.org/wiki/RTFM'
p623
aS'http://en.wikipedia.org/wiki/OAXAL'
p624
aS'http://en.wikipedia.org/wiki/Academic_inflation'
p625
aS'http://en.wikipedia.org/wiki/Mississippi_State_University'
p626
aS'http://en.wikipedia.org/wiki/South_College'
p627
aS'http://en.wikipedia.org/wiki/REU_at_the_Bermuda_Institute_of_Ocean_Sciences'
p628
aS'http://en.wikipedia.org/wiki/University_of_Montana'
p629
aS'http://en.wikipedia.org/wiki/Texas_State_University'
p630
aS'http://en.wikipedia.org/wiki/Gordon_College_(Georgia)'
p631
aS'http://en.wikipedia.org/wiki/Academic_integrity'
p632
aS'http://en.wikipedia.org/wiki/University_of_Missouri_System'
p633
aS'http://en.wikipedia.org/wiki/Richmond_Professional_Institute'
p634
aS'http://en.wikipedia.org/wiki/Writing_center'
p635
aS'http://en.wikipedia.org/wiki/DocBook'
p636
aS'http://en.wikipedia.org/wiki/Quincy_Method'
p637
aS'http://en.wikipedia.org/wiki/Sonora_Institute_of_Technology'
p638
aS'http://en.wikipedia.org/wiki/Catholic_Schools_United_Nations_Assembly'
p639
aS'http://en.wikipedia.org/wiki/The_Alamo_Colleges'
p640
aS'http://en.wikipedia.org/wiki/The_Alcalde'
p641
aS'http://en.wikipedia.org/wiki/Pitt_Community_College'
p642
aS'http://en.wikipedia.org/wiki/GikII'
p643
aS'http://en.wikipedia.org/wiki/Open_Access_Scholarly_Publishers_Association'
p644
aS'http://en.wikipedia.org/wiki/Electronic_Information_for_Libraries'
p645
aS'http://en.wikipedia.org/wiki/University_of_North_Carolina_Wilmington'
p646
aS'http://en.wikipedia.org/wiki/Copy_editing'
p647
aS'http://en.wikipedia.org/wiki/Salt_Lake_Community_College'
p648
aS'http://en.wikipedia.org/wiki/University_System_of_Maryland'
p649
aS'http://en.wikipedia.org/wiki/Afrocentric_education'
p650
aS'http://en.wikipedia.org/wiki/University_of_Mount_Olive'
p651
aS'http://en.wikipedia.org/wiki/Business_informatics'
p652
aS'http://en.wikipedia.org/wiki/Owensboro_Community_and_Technical_College'
p653
aS'http://en.wikipedia.org/wiki/Northwest_Vista_College'
p654
aS'http://en.wikipedia.org/wiki/Opportunity_trap'
p655
aS'http://en.wikipedia.org/wiki/School_of_education'
p656
aS'http://en.wikipedia.org/wiki/Allegory_of_the_Cave'
p657
aS'http://en.wikipedia.org/wiki/Transformative_learning'
p658
aS'http://en.wikipedia.org/wiki/Leisure_studies'
p659
aS'http://en.wikipedia.org/wiki/Texas_Culinary_Academy'
p660
aS'http://en.wikipedia.org/wiki/Procedural_memory'
p661
aS'http://en.wikipedia.org/wiki/TECHWR-L'
p662
aS'http://en.wikipedia.org/wiki/Louisiana_State_University_at_Alexandria'
p663
aS'http://en.wikipedia.org/wiki/Online_Writing_Lab'
p664
aS'http://en.wikipedia.org/wiki/Paideia_Proposal'
p665
aS'http://en.wikipedia.org/wiki/Stetson_University'
p666
aS'http://en.wikipedia.org/wiki/European_Union_Centers_of_Excellence'
p667
aS'http://en.wikipedia.org/wiki/Tusculum_College'
p668
aS'http://en.wikipedia.org/wiki/Positive_education'
p669
aS'http://en.wikipedia.org/wiki/Rhodes_College'
p670
aS'http://en.wikipedia.org/wiki/Institute_of_technology'
p671
aS'http://en.wikipedia.org/wiki/Ivory_tower'
p672
aS'http://en.wikipedia.org/wiki/National_Curriculum_for_Wales'
p673
aS'http://en.wikipedia.org/wiki/John_Nance_Garner_House'
p674
aS'http://en.wikipedia.org/wiki/Utah_State_University'
p675
aS'http://en.wikipedia.org/wiki/Institute_of_International_Education'
p676
aS'http://en.wikipedia.org/wiki/Institute_of_Scientific_and_Technical_Communicators'
p677
aS'http://en.wikipedia.org/wiki/Lisbon_Recognition_Convention'
p678
aS'http://en.wikipedia.org/wiki/Laredo_Community_College'
p679
aS'http://en.wikipedia.org/wiki/Campbellsville_University'
p680
aS'http://en.wikipedia.org/wiki/Network_for_Capacity_Development_in_Nutrition'
p681
aS'http://en.wikipedia.org/wiki/Medieval_university'
p682
aS'http://en.wikipedia.org/wiki/Cabarrus_College_of_Health_Sciences'
p683
aS'http://en.wikipedia.org/wiki/Active_learning'
p684
aS'http://en.wikipedia.org/wiki/Mythic_Journeys'
p685
aS'http://en.wikipedia.org/wiki/Great_Books'
p686
aS'http://en.wikipedia.org/wiki/Higher_Education_Price_Index'
p687
aS'http://en.wikipedia.org/wiki/Indiana_University_South_Bend'
p688
aS'http://en.wikipedia.org/wiki/San_Diego_State_University'
p689
aS'http://en.wikipedia.org/wiki/United_Media'
p690
aS'http://en.wikipedia.org/wiki/Wade_College'
p691
aS'http://en.wikipedia.org/wiki/University_of_Dallas'
p692
aS'http://en.wikipedia.org/wiki/Midway_College'
p693
aS'http://en.wikipedia.org/wiki/Robert_S._Strauss_Center_for_International_Security_and_Law'
p694
aS'http://en.wikipedia.org/wiki/Conference_management_system'
p695
aS'http://en.wikipedia.org/wiki/Dame_school'
p696
aS'http://en.wikipedia.org/wiki/Experiential_education'
p697
aS'http://en.wikipedia.org/wiki/HESFES'
p698
aS'http://en.wikipedia.org/wiki/Trading_Advantage'
p699
aS'http://en.wikipedia.org/wiki/Lipscomb_University'
p700
aS'http://en.wikipedia.org/wiki/Open_Source_University_Meetup'
p701
aS'http://en.wikipedia.org/wiki/University_of_C%C3%A1diz'
p702
aS'http://en.wikipedia.org/wiki/Lasallian_Schools_Press_Conference'
p703
aS'http://en.wikipedia.org/wiki/Universidad_Aut%C3%B3noma_Metropolitana'
p704
aS'http://en.wikipedia.org/wiki/City_University_of_New_York'
p705
aS'http://en.wikipedia.org/wiki/Cumberland_University'
p706
aS'http://en.wikipedia.org/wiki/Interamerican_University_of_Puerto_Rico'
p707
aS'http://en.wikipedia.org/wiki/Timeline_of_female_education'
p708
aS'http://en.wikipedia.org/wiki/Brain_Gym'
p709
aS'http://en.wikipedia.org/wiki/No_abstract_available_bias'
p710
aS'http://en.wikipedia.org/wiki/Florence%E2%80%93Darlington_Technical_College'
p711
aS'http://en.wikipedia.org/wiki/King_Edward_VI_Five_Ways'
p712
aS'http://en.wikipedia.org/wiki/CWC_Group'
p713
aS'http://en.wikipedia.org/wiki/Doctor_of_Medicine'
p714
aS'http://en.wikipedia.org/wiki/SIT_Study_Abroad'
p715
aS'http://en.wikipedia.org/wiki/University_of_Montevallo'
p716
aS'http://en.wikipedia.org/wiki/City_University_of_Seattle'
p717
aS'http://en.wikipedia.org/wiki/National_Curriculum_for_England'
p718
aS'http://en.wikipedia.org/wiki/Code_Camp'
p719
aS'http://en.wikipedia.org/wiki/Mobile_diabetes_screening_initiative'
p720
aS'http://en.wikipedia.org/wiki/ACE_STAR_Model_of_Knowledge_Transformation'
p721
aS'http://en.wikipedia.org/wiki/Atlanta_Metropolitan_College'
p722
aS'http://en.wikipedia.org/wiki/Landmarks_(University_of_Texas_at_Austin)'
p723
aS'http://en.wikipedia.org/wiki/Scholz_Garten'
p724
aS'http://en.wikipedia.org/wiki/Polimedia'
p725
aS'http://en.wikipedia.org/wiki/Upper_division_college'
p726
aS'http://en.wikipedia.org/wiki/Midland_University'
p727
aS'http://en.wikipedia.org/wiki/Living_theory_approach'
p728
aS'http://en.wikipedia.org/wiki/National_Curriculum_for_Northern_Ireland'
p729
aS'http://en.wikipedia.org/wiki/Audience_analysis'
p730
aS'http://en.wikipedia.org/wiki/Transport_Research_Arena'
p731
aS'http://en.wikipedia.org/wiki/Old_Dominion_University'
p732
aS'http://en.wikipedia.org/wiki/History_of_education'
p733
aS'http://en.wikipedia.org/wiki/Gender_gaps_in_mathematics_and_reading'
p734
aS'http://en.wikipedia.org/wiki/Pacific_Trade_and_Development_Conference'
p735
aS'http://en.wikipedia.org/wiki/Indiana_University_Bloomington'
p736
aS'http://en.wikipedia.org/wiki/James_Sprunt_Community_College'
p737
aS'http://en.wikipedia.org/wiki/Two-body_problem_(career)'
p738
aS'http://en.wikipedia.org/wiki/Magnolia_Bible_College'
p739
aS'http://en.wikipedia.org/wiki/Continuing_education'
p740
aS'http://en.wikipedia.org/wiki/Multidisciplinary_approach'
p741
aS'http://en.wikipedia.org/wiki/Sensitive_periods'
p742
aS'http://en.wikipedia.org/wiki/Central_European_Exchange_Program_for_University_Studies'
p743
aS'http://en.wikipedia.org/wiki/Cleary_University'
p744
aS'http://en.wikipedia.org/wiki/TekSam_-_Environmental_Planning'
p745
aS'http://en.wikipedia.org/wiki/Furman_University'
p746
aS'http://en.wikipedia.org/wiki/High_School_for_Girls'
p747
aS'http://en.wikipedia.org/wiki/Germanna_Community_College'
p748
aS'http://en.wikipedia.org/wiki/Dead_white_men'
p749
aS'http://en.wikipedia.org/wiki/University_of_North_Florida'
p750
aS'http://en.wikipedia.org/wiki/Bioline_International'
p751
aS'http://en.wikipedia.org/wiki/Case_Western_Reserve_University'
p752
aS'http://en.wikipedia.org/wiki/Radford_University'
p753
aS'http://en.wikipedia.org/wiki/Wayland_Baptist_University'
p754
aS'http://en.wikipedia.org/wiki/Dalton_State_College'
p755
aS'http://en.wikipedia.org/wiki/Halifax_Community_College'
p756
aS'http://en.wikipedia.org/wiki/HornFans'
p757
aS'http://en.wikipedia.org/wiki/Fast_abstract'
p758
aS'http://en.wikipedia.org/wiki/National_Association_for_the_Education_of_Young_Children'
p759
aS'http://en.wikipedia.org/wiki/University_of_Guadalajara'
p760
aS'http://en.wikipedia.org/wiki/William_Carey_University'
p761
aS'http://en.wikipedia.org/wiki/Creative_Problem_Solving_Institute'
p762
aS'http://en.wikipedia.org/wiki/Kenkoku_University'
p763
aS'http://en.wikipedia.org/wiki/Maricopa_County_Community_College_District'
p764
aS'http://en.wikipedia.org/wiki/University_of_Miami'
p765
aS'http://en.wikipedia.org/wiki/Gainesville_State_College'
p766
aS'http://en.wikipedia.org/wiki/Abraham_Baldwin_Agricultural_College'
p767
aS'http://en.wikipedia.org/wiki/Interdisciplinarity'
p768
aS'http://en.wikipedia.org/wiki/Gums_and_Stabilisers_for_the_Food_Industry'
p769
aS'http://en.wikipedia.org/wiki/Subversive_Proposal'
p770
aS'http://en.wikipedia.org/wiki/Hopwood_v._Texas'
p771
aS'http://en.wikipedia.org/wiki/Miami_University'
p772
aS'http://en.wikipedia.org/wiki/Middle_school'
p773
aS'http://en.wikipedia.org/wiki/Academic_specialization'
p774
aS'http://en.wikipedia.org/wiki/HTML'
p775
aS'http://en.wikipedia.org/wiki/Gramlee'
p776
aS'http://en.wikipedia.org/wiki/Triskelion_(Video_game)'
p777
aS'http://en.wikipedia.org/wiki/Lincoln_Memorial_University'
p778
aS'http://en.wikipedia.org/wiki/Student_orientation'
p779
aS'http://en.wikipedia.org/wiki/Language_Experience_Approach'
p780
aS'http://en.wikipedia.org/wiki/ISO-TimeML'
p781
aS'http://en.wikipedia.org/wiki/Frank_Phillips_College'
p782
aS'http://en.wikipedia.org/wiki/University_of_Texas_at_Austin_College_of_Natural_Sciences'
p783
aS'http://en.wikipedia.org/wiki/Methodist_University'
p784
aS'http://en.wikipedia.org/wiki/Sherman_College_of_Chiropractic'
p785
aS'http://en.wikipedia.org/wiki/Universidad_Aut%C3%B3noma_de_Guadalajara'
p786
aS'http://en.wikipedia.org/wiki/World_Congress_of_Rusyns'
p787
aS'http://en.wikipedia.org/wiki/University_of_Texas_at_Dallas'
p788
aS'http://en.wikipedia.org/wiki/Expertise_finding'
p789
aS'http://en.wikipedia.org/wiki/Selkirk_College'
p790
aS'http://en.wikipedia.org/wiki/University_of_Colorado_Boulder'
p791
aS'http://en.wikipedia.org/wiki/Morehead_State_University'
p792
aS'http://en.wikipedia.org/wiki/Texas_Cowboys'
p793
aS'http://en.wikipedia.org/wiki/The_University_of_Texas_Sailing_Team'
p794
aS'http://en.wikipedia.org/wiki/Houghton_College'
p795
aS'http://en.wikipedia.org/wiki/NAFSA:_Association_of_International_Educators'
p796
aS'http://en.wikipedia.org/wiki/Framework_for_Intervention'
p797
aS'http://en.wikipedia.org/wiki/Virginia_Wesleyan_College'
p798
aS'http://en.wikipedia.org/wiki/OpenConf'
p799
aS'http://en.wikipedia.org/wiki/University_of_Toronto'
p800
aS'http://en.wikipedia.org/wiki/Singapore_International_Energy_Week'
p801
aS'http://en.wikipedia.org/wiki/Texas_4000_for_Cancer'
p802
aS'http://en.wikipedia.org/wiki/Match_rate'
p803
aS'http://en.wikipedia.org/wiki/Ingenta'
p804
aS'http://en.wikipedia.org/wiki/Peer_learning'
p805
aS'http://en.wikipedia.org/wiki/Medical_University_of_South_Carolina'
p806
aS'http://en.wikipedia.org/wiki/Bladen_Community_College'
p807
aS'http://en.wikipedia.org/wiki/AFI_Global_Policy_Forum'
p808
aS'http://en.wikipedia.org/wiki/Queer_pedagogy'
p809
aS'http://en.wikipedia.org/wiki/Dabney_S._Lancaster_Community_College'
p810
aS'http://en.wikipedia.org/wiki/Hochschule_f%C3%BCr_Musik_N%C3%BCrnberg'
p811
aS'http://en.wikipedia.org/wiki/Webber_International_University'
p812
aS'http://en.wikipedia.org/wiki/University_at_Buffalo,_The_State_University_of_New_York'
p813
aS'http://en.wikipedia.org/wiki/Wayne_Community_College'
p814
aS'http://en.wikipedia.org/wiki/Social_work'
p815
aS'http://en.wikipedia.org/wiki/Southern_Crescent_Technical_College'
p816
aS'http://en.wikipedia.org/wiki/St._Mary%27s_University,_Texas'
p817
aS'http://en.wikipedia.org/wiki/University_of_Kansas'
p818
aS'http://en.wikipedia.org/wiki/Texas_Advanced_Computing_Center'
p819
aS'http://en.wikipedia.org/wiki/Integrated_Modification_Methodology'
p820
aS'http://en.wikipedia.org/wiki/Humanitas'
p821
aS'http://en.wikipedia.org/wiki/Baton_Rouge_Community_College'
p822
aS'http://en.wikipedia.org/wiki/Wofford_College'
p823
aS'http://en.wikipedia.org/wiki/Articulation_(education)'
p824
aS'http://en.wikipedia.org/wiki/Veterinary_College_of_UFMG'
p825
aS'http://en.wikipedia.org/wiki/University_of_North_Texas_at_Dallas'
p826
aS'http://en.wikipedia.org/wiki/Buckingham_Browne_%26_Nichols'
p827
aS'http://en.wikipedia.org/wiki/John_A._Gupton_College'
p828
aS'http://en.wikipedia.org/wiki/Textual_scholarship'
p829
aS'http://en.wikipedia.org/wiki/Rolls_Series'
p830
aS'http://en.wikipedia.org/wiki/Model-centered_instruction'
p831
aS'http://en.wikipedia.org/wiki/Education_in_ancient_Rome'
p832
aS'http://en.wikipedia.org/wiki/Xi%27an_Polytechnic_University'
p833
aS'http://en.wikipedia.org/wiki/Orange_Jackets'
p834
aS'http://en.wikipedia.org/wiki/Academic_studies_about_Wikipedia'
p835
aS'http://en.wikipedia.org/wiki/Western_Michigan_University'
p836
aS'http://en.wikipedia.org/wiki/British_Studies_Seminar,_University_of_Texas_at_Austin'
p837
aS'http://en.wikipedia.org/wiki/Randolph%E2%80%93Macon_College'
p838
aS'http://en.wikipedia.org/wiki/Professional_conference'
p839
aS'http://en.wikipedia.org/wiki/Jamiah_Khatamun_Nabiyeen'
p840
aS'http://en.wikipedia.org/wiki/Slovak_Academy_of_Sciences'
p841
aS'http://en.wikipedia.org/wiki/Academic_rank_in_France'
p842
aS'http://en.wikipedia.org/wiki/Physics_First'
p843
aS'http://en.wikipedia.org/wiki/University_of_Jamestown'
p844
aS'http://en.wikipedia.org/wiki/North_Lake_College'
p845
aS'http://en.wikipedia.org/wiki/Oxford_Round_Table'
p846
aS'http://en.wikipedia.org/wiki/Concordia_College_Alabama'
p847
aS'http://en.wikipedia.org/wiki/Blanton_Museum_of_Art'
p848
aS'http://en.wikipedia.org/wiki/Valencia_College'
p849
aS'http://en.wikipedia.org/wiki/Florida_Institute_of_Technology'
p850
aS'http://en.wikipedia.org/wiki/Belhaven_University'
p851
aS'http://en.wikipedia.org/wiki/Scholarship'
p852
aS'http://en.wikipedia.org/wiki/Sweatt_v._Painter'
p853
aS'http://en.wikipedia.org/wiki/The_Alice_Ottley_School'
p854
aS'http://en.wikipedia.org/wiki/Lift_Conference'
p855
aS'http://en.wikipedia.org/wiki/Academy'
p856
aS'http://en.wikipedia.org/wiki/El_Paso_Community_College'
p857
aS'http://en.wikipedia.org/wiki/Social_networking_pedagogy'
p858
aS'http://en.wikipedia.org/wiki/Marion_Military_Institute'
p859
aS'http://en.wikipedia.org/wiki/Postbaccalaureate_program'
p860
aS'http://en.wikipedia.org/wiki/Charleston_Southern_University'
p861
aS'http://en.wikipedia.org/wiki/Kentucky_Community_and_Technical_College_System'
p862
aS'http://en.wikipedia.org/wiki/Edmonton_Catholic_School_District'
p863
aS'http://en.wikipedia.org/wiki/Jacobs_School_of_Engineering'
p864
aS'http://en.wikipedia.org/wiki/Parent-controlled_school'
p865
aS'http://en.wikipedia.org/wiki/CALS_(DOD)'
p866
aS'http://en.wikipedia.org/wiki/Centre_culturel_international_de_Cerisy-la-Salle'
p867
aS'http://en.wikipedia.org/wiki/The_Learning_Annex'
p868
aS'http://en.wikipedia.org/wiki/Edge_case'
p869
aS'http://en.wikipedia.org/wiki/Academic_job_market'
p870
aS'http://en.wikipedia.org/wiki/University_college'
p871
aS'http://en.wikipedia.org/wiki/Immaculate_Conception_Academy_(San_Francisco,_California)'
p872
aS'http://en.wikipedia.org/wiki/Application_programming_interface'
p873
aS'http://en.wikipedia.org/wiki/CALS_Raster_file_format'
p874
aS'http://en.wikipedia.org/wiki/Liceo_classico_Cavour'
p875
aS'http://en.wikipedia.org/wiki/Hawaii_International_Conference_on_Education'
p876
aS'http://en.wikipedia.org/wiki/Eranos'
p877
aS'http://en.wikipedia.org/wiki/Gordon_Graham_(writer)'
p878
aS'http://en.wikipedia.org/wiki/Texas_A%26M_University%E2%80%93Commerce'
p879
aS'http://en.wikipedia.org/wiki/Bainbridge_State_College'
p880
aS'http://en.wikipedia.org/wiki/Maieutics'
p881
aS'http://en.wikipedia.org/wiki/Home_economics'
p882
aS'http://en.wikipedia.org/wiki/Open_access'
p883
aS'http://en.wikipedia.org/wiki/Governance_in_higher_education'
p884
aS'http://en.wikipedia.org/wiki/Zur_Sprache_bringen._Eine_Kritik_der_Architekturkritik'
p885
aS'http://en.wikipedia.org/wiki/Calmecac'
p886
aS'http://en.wikipedia.org/wiki/Legal_case_management'
p887
aS'http://en.wikipedia.org/wiki/Liberal_arts_college'
p888
aS'http://en.wikipedia.org/wiki/Eastfield_College'
p889
aS'http://en.wikipedia.org/wiki/Radha_Madhav_Dham'
p890
aS'http://en.wikipedia.org/wiki/University_of_Tulsa'
p891
aS'http://en.wikipedia.org/wiki/Midlands_Technical_College'
p892
aS'http://en.wikipedia.org/wiki/Lees_College'
p893
aS'http://en.wikipedia.org/wiki/Collegiate_institute'
p894
aS'http://en.wikipedia.org/wiki/Getting_It_Right_for_Every_Child'
p895
aS'http://en.wikipedia.org/wiki/DreamSpark_Premium'
p896
aS'http://en.wikipedia.org/wiki/Unaccredited_institutions_of_higher_education'
p897
aS'http://en.wikipedia.org/wiki/Piedmont_Community_College'
p898
aS'http://en.wikipedia.org/wiki/Boise_State_University'
p899
aS'http://en.wikipedia.org/wiki/Slippery_Rock_University_of_Pennsylvania'
p900
aS'http://en.wikipedia.org/wiki/Beacon_College'
p901
aS'http://en.wikipedia.org/wiki/Zurich.minds'
p902
aS'http://en.wikipedia.org/wiki/Bromley_High_School'
p903
aS'http://en.wikipedia.org/wiki/University_of_Massachusetts_Amherst'
p904
aS'http://en.wikipedia.org/wiki/PostScript'
p905
aS'http://en.wikipedia.org/wiki/Northern_Kentucky_University'
p906
aS'http://en.wikipedia.org/wiki/Institute_for_System_Level_Integration'
p907
aS'http://en.wikipedia.org/wiki/Urban_university'
p908
aS'http://en.wikipedia.org/wiki/Frederick_Douglass_High_School_(Baltimore,_Maryland)'
p909
aS'http://en.wikipedia.org/wiki/Gordon_Research_Conferences'
p910
aS'http://en.wikipedia.org/wiki/Oxford_University_Studies_in_the_Enlightenment'
p911
aS'http://en.wikipedia.org/wiki/Sydney_Boys_High_School'
p912
aS'http://en.wikipedia.org/wiki/SDEP'
p913
aS'http://en.wikipedia.org/wiki/Junior_(education)'
p914
aS'http://en.wikipedia.org/wiki/Washburn_University'
p915
aS'http://en.wikipedia.org/wiki/Andrews_Forest'
p916
aS'http://en.wikipedia.org/wiki/Sustainability_studies'
p917
aS'http://en.wikipedia.org/wiki/Constructivism_in_science_education'
p918
aS'http://en.wikipedia.org/wiki/Panteion_University'
p919
aS'http://en.wikipedia.org/wiki/Directed_individual_study'
p920
aS'http://en.wikipedia.org/wiki/University_of_Delaware'
p921
aS'http://en.wikipedia.org/wiki/Qatar_National_Convention_Centre'
p922
aS'http://en.wikipedia.org/wiki/Harvard%E2%80%93Radcliffe_Women%27s_Leadership_Project'
p923
aS'http://en.wikipedia.org/wiki/Harry_Ransom_Center'
p924
aS'http://en.wikipedia.org/wiki/Western_Wyoming_Community_College'
p925
aS'http://en.wikipedia.org/wiki/Academic_term'
p926
aS'http://en.wikipedia.org/wiki/Kwantlen_Polytechnic_University'
p927
aS'http://en.wikipedia.org/wiki/Starting_gate_school'
p928
aS'http://en.wikipedia.org/wiki/University_of_Li%C3%A8ge'
p929
aS'http://en.wikipedia.org/wiki/Scholastic_READ_180'
p930
aS'http://en.wikipedia.org/wiki/Bowling_Green_State_University_Department_of_Popular_Culture'
p931
aS'http://en.wikipedia.org/wiki/Massachusetts_Institute_of_Technology'
p932
aS'http://en.wikipedia.org/wiki/Higher_Education_(journal)'
p933
aS'http://en.wikipedia.org/wiki/University_System_of_New_Hampshire'
p934
aS'http://en.wikipedia.org/wiki/Florida_Atlantic_University'
p935
aS'http://en.wikipedia.org/wiki/International_Conference_on_Advances_in_ICT_for_Emerging_Regions'
p936
aS'http://en.wikipedia.org/wiki/Mipcom'
p937
aS'http://en.wikipedia.org/wiki/Manager_Tools_Podcast'
p938
aS'http://en.wikipedia.org/wiki/Aarhus_Faculty_of_Health_Sciences_(Aarhus_University)'
p939
aS'http://en.wikipedia.org/wiki/Alma_mater'
p940
aS'http://en.wikipedia.org/wiki/University_of_Minnesota'
p941
aS'http://en.wikipedia.org/wiki/Collaborative_pedagogy'
p942
aS'http://en.wikipedia.org/wiki/University_of_Ioannina'
p943
aS'http://en.wikipedia.org/wiki/Asian_Conference_on_Electrochemical_Power_Sources'
p944
aS'http://en.wikipedia.org/wiki/Changelog'
p945
aS'http://en.wikipedia.org/wiki/University_of_Maryland,_Baltimore_County'
p946
aS'http://en.wikipedia.org/wiki/The_Art_Institute_of_Austin'
p947
aS'http://en.wikipedia.org/wiki/Hampton_University'
p948
aS'http://en.wikipedia.org/wiki/Brown_University'
p949
aS'http://en.wikipedia.org/wiki/Jagiellonian_University'
p950
aS'http://en.wikipedia.org/wiki/Transdisciplinarity'
p951
aS'http://en.wikipedia.org/wiki/Lincoln_University_(Missouri)'
p952
aS'http://en.wikipedia.org/wiki/Cohort_(educational_group)'
p953
aS'http://en.wikipedia.org/wiki/Jose_Azel'
p954
aS'http://en.wikipedia.org/wiki/Peter_A._Sturgeon'
p955
aS'http://en.wikipedia.org/wiki/Autonomous_University_of_Queretaro'
p956
aS'http://en.wikipedia.org/wiki/Beuth_University_of_Applied_Sciences_Berlin'
p957
aS'http://en.wikipedia.org/wiki/Macy_conferences'
p958
aS'http://en.wikipedia.org/wiki/Semantic_publishing'
p959
aS'http://en.wikipedia.org/wiki/UK_Space_Conference'
p960
aS'http://en.wikipedia.org/wiki/Central_Georgia_Technical_College'
p961
aS'http://en.wikipedia.org/wiki/Microattribution'
p962
aS'http://en.wikipedia.org/wiki/Educational_psychologist'
p963
aS'http://en.wikipedia.org/wiki/Curriculum_of_the_Waldorf_schools'
p964
aS'http://en.wikipedia.org/wiki/Jefferson_State_Community_College'
p965
aS'http://en.wikipedia.org/wiki/New_York_University'
p966
aS'http://en.wikipedia.org/wiki/Senior_(education)'
p967
aS'http://en.wikipedia.org/wiki/University_of_Utah'
p968
aS'http://en.wikipedia.org/wiki/University_of_Houston%E2%80%93Downtown'
p969
aS'http://en.wikipedia.org/wiki/Stephen_F._Austin_State_University'
p970
aS'http://en.wikipedia.org/wiki/Socratic_method'
p971
aS'http://en.wikipedia.org/wiki/Eastern_Kentucky_University'
p972
aS'http://en.wikipedia.org/wiki/University_of_Alberta_Faculty_of_Law'
p973
aS'http://en.wikipedia.org/wiki/SpreadsheetML'
p974
aS'http://en.wikipedia.org/wiki/Telos_Institute'
p975
aS'http://en.wikipedia.org/wiki/Academia'
p976
aS'http://en.wikipedia.org/wiki/Record_Commission'
p977
aS'http://en.wikipedia.org/wiki/Society_for_Scholarly_Publishing'
p978
aS'http://en.wikipedia.org/wiki/Tuskegee_University'
p979
aS'http://en.wikipedia.org/wiki/ConventionCamp'
p980
aS'http://en.wikipedia.org/wiki/A_History_of_the_University_in_Europe'
p981
aS'http://en.wikipedia.org/wiki/Universidad_de_Guanajuato'
p982
aS'http://en.wikipedia.org/wiki/University_charter'
p983
aS'http://en.wikipedia.org/wiki/Oakland_University'
p984
aS'http://en.wikipedia.org/wiki/Akademio_de_Esperanto'
p985
aS'http://en.wikipedia.org/wiki/Spring_Hill_College'
p986
aS'http://en.wikipedia.org/wiki/Florida_State_University'
p987
aS'http://en.wikipedia.org/wiki/William_Spady'
p988
aS'http://en.wikipedia.org/wiki/Sweet_Briar_College'
p989
aS'http://en.wikipedia.org/wiki/Langara_College'
p990
aS'http://en.wikipedia.org/wiki/National_Curriculum_(England,_Wales_and_Northern_Ireland)'
p991
aS'http://en.wikipedia.org/wiki/OPAR_L%27Orientale_Open_Archive'
p992
aS'http://en.wikipedia.org/wiki/Colleges_within_universities_in_the_United_Kingdom'
p993
aS'http://en.wikipedia.org/wiki/John_Dewey'
p994
aS'http://en.wikipedia.org/wiki/Shelter_Island_Conference_on_Quantum_Mechanics_in_Valence_Theory,_1951'
p995
aS'http://en.wikipedia.org/wiki/Video_lesson'
p996
aS'http://en.wikipedia.org/wiki/Ioannina_Medical_School'
p997
aS'http://en.wikipedia.org/wiki/Petrovision'
p998
aS'http://en.wikipedia.org/wiki/Jarvis_Christian_College'
p999
aS'http://en.wikipedia.org/wiki/Adaptive_behaviors'
p1000
aS'http://en.wikipedia.org/wiki/Adventure_learning'
p1001
aS'http://en.wikipedia.org/wiki/College_of_William_%26_Mary'
p1002
aS'http://en.wikipedia.org/wiki/Digital_textbook'
p1003
aS'http://en.wikipedia.org/wiki/DeepDyve'
p1004
aS'http://en.wikipedia.org/wiki/Georgia_Piedmont_Technical_College'
p1005
aS'http://en.wikipedia.org/wiki/St._Austin%27s_Military_School'
p1006
aS'http://en.wikipedia.org/wiki/Coll%C3%A8ge_de_La_Confiance'
p1007
aS'http://en.wikipedia.org/wiki/Master_of_Homeland_Security'
p1008
aS'http://en.wikipedia.org/wiki/Inquiry-based_learning'
p1009
aS'http://en.wikipedia.org/wiki/Global_Historical_Climatology_Network'
p1010
aS'http://en.wikipedia.org/wiki/World_Affairs_Conference'
p1011
aS'http://en.wikipedia.org/wiki/International_Agriculture_Students_Symposium'
p1012
aS'http://en.wikipedia.org/wiki/Open_Journal_Systems'
p1013
aS'http://en.wikipedia.org/wiki/Manualism'
p1014
aS'http://en.wikipedia.org/wiki/Western_Kentucky_University'
p1015
aS'http://en.wikipedia.org/wiki/Industrial_arts'
p1016
aS'http://en.wikipedia.org/wiki/Curriculum_mapping'
p1017
aS'http://en.wikipedia.org/wiki/Green_building_on_college_campuses'
p1018
aS'http://en.wikipedia.org/wiki/College_transfer'
p1019
aS'http://en.wikipedia.org/wiki/Kilgore_College'
p1020
aS'http://en.wikipedia.org/wiki/Albany_State_University'
p1021
aS'http://en.wikipedia.org/wiki/INCAE_Business_School'
p1022
aS'http://en.wikipedia.org/wiki/Internal_documentation'
p1023
aS'http://en.wikipedia.org/wiki/Waycross_College'
p1024
aS'http://en.wikipedia.org/wiki/Guam_Community_College'
p1025
aS'http://en.wikipedia.org/wiki/Ontology_(information_science)'
p1026
aS'http://en.wikipedia.org/wiki/LeMoyne%E2%80%93Owen_College'
p1027
aS'http://en.wikipedia.org/wiki/National_and_Kapodistrian_University_of_Athens'
p1028
aS'http://en.wikipedia.org/wiki/University_of_Texas_at_San_Antonio'
p1029
aS'http://en.wikipedia.org/wiki/Shorter_University'
p1030
aS'http://en.wikipedia.org/wiki/Web_help'
p1031
aS'http://en.wikipedia.org/wiki/Digital_teaching_platform'
p1032
aS'http://en.wikipedia.org/wiki/M%C4%81ori_science'
p1033
aS'http://en.wikipedia.org/wiki/Faculty_(division)'
p1034
aS'http://en.wikipedia.org/wiki/Bauhaus_University,_Weimar'
p1035
aS'http://en.wikipedia.org/wiki/Oxford_Farming_Conference'
p1036
aS'http://en.wikipedia.org/wiki/Ikkicon'
p1037
aS'http://en.wikipedia.org/wiki/Howard_University'
p1038
aS'http://en.wikipedia.org/wiki/Eastern_Virginia_Medical_School'
p1039
aS'http://en.wikipedia.org/wiki/Northeast_Mississippi_Community_College'
p1040
aS'http://en.wikipedia.org/wiki/Maryville_College'
p1041
aS'http://en.wikipedia.org/wiki/PLOS'
p1042
aS'http://en.wikipedia.org/wiki/Librarians%27_Information_Literacy_Annual_Conference'
p1043
aS'http://en.wikipedia.org/wiki/Xml:tm'
p1044
aS'http://en.wikipedia.org/wiki/Morehouse_School_of_Medicine'
p1045
aS'http://en.wikipedia.org/wiki/Continuing_education_unit'
p1046
aS'http://en.wikipedia.org/wiki/Production_theory'
p1047
aS'http://en.wikipedia.org/wiki/Owner%27s_manual'
p1048
aS'http://en.wikipedia.org/wiki/Maysville_Community_and_Technical_College'
p1049
aS'http://en.wikipedia.org/wiki/Masaryk_University'
p1050
aS'http://en.wikipedia.org/wiki/Position_paper'
p1051
aS'http://en.wikipedia.org/wiki/Alabama_Southern_Community_College'
p1052
aS'http://en.wikipedia.org/wiki/Wallace_Community_College'
p1053
aS'http://en.wikipedia.org/wiki/Carolingian_Schools'
p1054
aS'http://en.wikipedia.org/wiki/Lady_Bird_Lake'
p1055
aS'http://en.wikipedia.org/wiki/Comparative_law'
p1056
aS'http://en.wikipedia.org/wiki/University_of_Wisconsin%E2%80%93Milwaukee'
p1057
aS'http://en.wikipedia.org/wiki/Chittagong_Independent_University_(CIU)'
p1058
aS'http://en.wikipedia.org/wiki/Athens_Technical_College'
p1059
aS'http://en.wikipedia.org/wiki/International_Literature_and_Psychology_Conference'
p1060
aS'http://en.wikipedia.org/wiki/University_of_Angers'
p1061
aS'http://en.wikipedia.org/wiki/Pakistani_students_abroad'
p1062
aS'http://en.wikipedia.org/wiki/Edison_State_College'
p1063
aS'http://en.wikipedia.org/wiki/Texas_A%26M_University'
p1064
aS'http://en.wikipedia.org/wiki/School_for_Conflict_Analysis_and_Resolution'
p1065
aS'http://en.wikipedia.org/wiki/East_Texas_Baptist_University'
p1066
aS'http://en.wikipedia.org/wiki/Military_Engineering-Technical_University'
p1067
aS'http://en.wikipedia.org/wiki/Land-grant_university'
p1068
aS'http://en.wikipedia.org/wiki/Fachhochschule_Flensburg'
p1069
aS'http://en.wikipedia.org/wiki/TreeBASE'
p1070
aS'http://en.wikipedia.org/wiki/American_Samoa_Community_College'
p1071
aS'http://en.wikipedia.org/wiki/Braunauer_Zeitgeschichte-Tage'
p1072
aS'http://en.wikipedia.org/wiki/Purpose-Centered_Education'
p1073
aS'http://en.wikipedia.org/wiki/History_Workshop_Journal'
p1074
aS'http://en.wikipedia.org/wiki/Types_of_educational_institutions'
p1075
aS'http://en.wikipedia.org/wiki/Louisiana_State_University_Agricultural_Center'
p1076
aS'http://en.wikipedia.org/wiki/Kentucky_State_University'
p1077
aS'http://en.wikipedia.org/wiki/Texas_A%26M_University_at_Galveston'
p1078
aS'http://en.wikipedia.org/wiki/.ac_(second-level_domain)'
p1079
aS'http://en.wikipedia.org/wiki/Wingspread_Conference_on_the_Precautionary_Principle'
p1080
aS'http://en.wikipedia.org/wiki/Dissimulation'
p1081
aS'http://en.wikipedia.org/wiki/Trinity_Valley_Community_College'
p1082
aS'http://en.wikipedia.org/wiki/Project_method'
p1083
aS'http://en.wikipedia.org/wiki/University_of_South_Carolina_Beaufort'
p1084
aS'http://en.wikipedia.org/wiki/Central_Texas_College'
p1085
aS'http://en.wikipedia.org/wiki/Converse_College'
p1086
aS'http://en.wikipedia.org/wiki/Northeast_Texas_Community_College'
p1087
aS'http://en.wikipedia.org/wiki/South_University'
p1088
aS'http://en.wikipedia.org/wiki/Named_lectures'
p1089
aS'http://en.wikipedia.org/wiki/Centre_College'
p1090
aS'http://en.wikipedia.org/wiki/Indian_School_of_International_Studies'
p1091
aS'http://en.wikipedia.org/wiki/Sydney_Girls_High_School'
p1092
aS'http://en.wikipedia.org/wiki/Hochschule_f%C3%BCr_Musik_Franz_Liszt,_Weimar'
p1093
aS'http://en.wikipedia.org/wiki/Christopher_Newport_University'
p1094
aS'http://en.wikipedia.org/wiki/Sister_school'
p1095
aS'http://en.wikipedia.org/wiki/Library_publishing'
p1096
aS'http://en.wikipedia.org/wiki/Development_and_Application_Systems_Conference'
p1097
aS'http://en.wikipedia.org/wiki/Georgia_Regents_University'
p1098
aS'http://en.wikipedia.org/wiki/Public_Sphere_Pedagogy'
p1099
aS'http://en.wikipedia.org/wiki/Union_Presbyterian_Seminary'
p1100
aS'http://en.wikipedia.org/wiki/Adult_educator'
p1101
aS'http://en.wikipedia.org/wiki/Association_of_Learned_and_Professional_Society_Publishers'
p1102
aS'http://en.wikipedia.org/wiki/Example_choice'
p1103
aS'http://en.wikipedia.org/wiki/Aquinas_College_(Tennessee)'
p1104
aS'http://en.wikipedia.org/wiki/Gomidas_Institute'
p1105
aS'http://en.wikipedia.org/wiki/University_of_Virginia%27s_College_at_Wise'
p1106
aS'http://en.wikipedia.org/wiki/University_of_Basel'
p1107
aS'http://en.wikipedia.org/wiki/Tarkio_College'
p1108
aS'http://en.wikipedia.org/wiki/Thesis_statement'
p1109
aS'http://en.wikipedia.org/wiki/Teaching_and_Learning_International_Survey'
p1110
aS'http://en.wikipedia.org/wiki/Freudenthal_Institute_for_Science_and_Mathematics_Education'
p1111
aS'http://en.wikipedia.org/wiki/Pasco%E2%80%93Hernando_State_College'
p1112
aS'http://en.wikipedia.org/wiki/Outline_of_education'
p1113
aS'http://en.wikipedia.org/wiki/Southern_Illinois_University'
p1114
aS'http://en.wikipedia.org/wiki/Fayetteville_Technical_Community_College'
p1115
aS'http://en.wikipedia.org/wiki/International_Network_for_the_Availability_of_Scientific_Publications'
p1116
aS'http://en.wikipedia.org/wiki/Technical_report'
p1117
aS'http://en.wikipedia.org/wiki/RGK_Center_for_Philanthropy_and_Community_Service'
p1118
aS'http://en.wikipedia.org/wiki/Centro_de_Ense%C3%B1anza_T%C3%A9cnica_y_Superior'
p1119
aS'http://en.wikipedia.org/wiki/OECC'
p1120
aS'http://en.wikipedia.org/wiki/Trevecca_Nazarene_University'
p1121
aS'http://en.wikipedia.org/wiki/Aarhus_Faculty_of_Science_and_Technology_(Aarhus_University)'
p1122
aS'http://en.wikipedia.org/wiki/Paine_College'
p1123
aS'http://en.wikipedia.org/wiki/Funding_bias'
p1124
aS'http://en.wikipedia.org/wiki/Trident_Technical_College'
p1125
aS'http://en.wikipedia.org/wiki/Allied_academies'
p1126
aS'http://en.wikipedia.org/wiki/Regent_master'
p1127
aS'http://en.wikipedia.org/wiki/University_of_Tampa'
p1128
aS'http://en.wikipedia.org/wiki/Brazosport_College'
p1129
aS'http://en.wikipedia.org/wiki/Florida_College'
p1130
aS'http://en.wikipedia.org/wiki/Rostock_University_of_Music_and_Theatre'
p1131
aS'http://en.wikipedia.org/wiki/Weatherford_College'
p1132
aS'http://en.wikipedia.org/wiki/A._S._Neill'
p1133
aS'http://en.wikipedia.org/wiki/McDonell_Central_Catholic_High_School'
p1134
aS'http://en.wikipedia.org/wiki/Texas_Review_of_Entertainment_%26_Sports_Law'
p1135
aS'http://en.wikipedia.org/wiki/International_Conference_on_the_Malaysia_Agreement'
p1136
aS'http://en.wikipedia.org/wiki/Indira_Gandhi_Polytechnic_College,_Mahe'
p1137
aS'http://en.wikipedia.org/wiki/Connecticut_Agricultural_Experiment_Station'
p1138
aS'http://en.wikipedia.org/wiki/Reformed_Theological_Seminary'
p1139
aS'http://en.wikipedia.org/wiki/Table_of_contents'
p1140
aS'http://en.wikipedia.org/wiki/IMS_VDEX'
p1141
aS'http://en.wikipedia.org/wiki/Community_college'
p1142
aS'http://en.wikipedia.org/wiki/North_of_England_Education_Conference'
p1143
aS'http://en.wikipedia.org/wiki/McGill_University'
p1144
aS'http://en.wikipedia.org/wiki/Class_ring'
p1145
aS'http://en.wikipedia.org/wiki/Religiosity_and_education'
p1146
aS'http://en.wikipedia.org/wiki/Auburn_University'
p1147
aS'http://en.wikipedia.org/wiki/The_DO-IT_Center'
p1148
aS'http://en.wikipedia.org/wiki/Entertainment_in_education'
p1149
aS'http://en.wikipedia.org/wiki/Paris_Junior_College'
p1150
aS'http://en.wikipedia.org/wiki/Female_education'
p1151
aS'http://en.wikipedia.org/wiki/XML'
p1152
aS'http://en.wikipedia.org/wiki/Technical_standard'
p1153
aS'http://en.wikipedia.org/wiki/Electrical_system_design'
p1154
aS'http://en.wikipedia.org/wiki/Grey_Literature_International_Steering_Committee'
p1155
aS'http://en.wikipedia.org/wiki/University_of_California,_Berkeley'
p1156
aS'http://en.wikipedia.org/wiki/American_Indian_Higher_Education_Consortium'
p1157
aS'http://en.wikipedia.org/wiki/Windham_High_School_(Ohio)'
p1158
aS'http://en.wikipedia.org/wiki/Lamar_State_College%E2%80%93Orange'
p1159
aS'http://en.wikipedia.org/wiki/Baltimore_Polytechnic_Institute'
p1160
aS'http://en.wikipedia.org/wiki/McLennan_Community_College'
p1161
aS'http://en.wikipedia.org/wiki/Microlearning'
p1162
aS'http://en.wikipedia.org/wiki/Exhibit_(educational)'
p1163
aS'http://en.wikipedia.org/wiki/Shirley_Thomas_(USC_professor)'
p1164
aS'http://en.wikipedia.org/wiki/Skepticon'
p1165
aS'http://en.wikipedia.org/wiki/K-5_(education)'
p1166
aS'http://en.wikipedia.org/wiki/Run_chart'
p1167
aS'http://en.wikipedia.org/wiki/Liceo_Classico_Jacopo_Stellini'
p1168
aS'http://en.wikipedia.org/wiki/Odessa_College'
p1169
aS'http://en.wikipedia.org/wiki/Houston_Community_College_System'
p1170
aS'http://en.wikipedia.org/wiki/Campus'
p1171
aS'http://en.wikipedia.org/wiki/University_of_North_Carolina'
p1172
aS'http://en.wikipedia.org/wiki/Amplified_conference'
p1173
aS'http://en.wikipedia.org/wiki/Delaware_State_University'
p1174
aS'http://en.wikipedia.org/wiki/Martin_Documentation'
p1175
aS'http://en.wikipedia.org/wiki/K%E2%80%9312_(education)'
p1176
aS'http://en.wikipedia.org/wiki/Randolph_Community_College'
p1177
aS'http://en.wikipedia.org/wiki/PEI_Media'
p1178
aS'http://en.wikipedia.org/wiki/Academic_freedom'
p1179
aS'http://en.wikipedia.org/wiki/Alvin_Community_College'
p1180
aS'http://en.wikipedia.org/wiki/International_Volap%C3%BCk_Academy'
p1181
aS'http://en.wikipedia.org/wiki/Gulf_Coast_State_College'
p1182
aS'http://en.wikipedia.org/wiki/Theory_of_operation'
p1183
aS'http://en.wikipedia.org/wiki/Innovation_pedagogy'
p1184
aS'http://en.wikipedia.org/wiki/AgroWeb_Network'
p1185
aS'http://en.wikipedia.org/wiki/Eastern_Shore_Community_College'
p1186
aS'http://en.wikipedia.org/wiki/Oak_Ridge_Associated_Universities'
p1187
aS'http://en.wikipedia.org/wiki/CALS_Table_Model'
p1188
aS'http://en.wikipedia.org/wiki/Seminary_of_the_Southwest'
p1189
aS'http://en.wikipedia.org/wiki/Texas_Southern_University'
p1190
aS'http://en.wikipedia.org/wiki/Nelson_College_for_Girls'
p1191
aS'http://en.wikipedia.org/wiki/Griffin_Technical_College'
p1192
aS'http://en.wikipedia.org/wiki/Procedural_knowledge'
p1193
aS'http://en.wikipedia.org/wiki/Anarchism_and_education'
p1194
aS'http://en.wikipedia.org/wiki/The_Hidden_Curriculum_(book)'
p1195
aS'http://en.wikipedia.org/wiki/Middle_Georgia_College'
p1196
aS'http://en.wikipedia.org/wiki/Louisiana_State_University'
p1197
aS'http://en.wikipedia.org/wiki/Rice_University'
p1198
aS'http://en.wikipedia.org/wiki/University_of_Burgos'
p1199
aS'http://en.wikipedia.org/wiki/UCSB_Center_for_Spatial_Studies'
p1200
aS'http://en.wikipedia.org/wiki/World_Affairs_Seminar'
p1201
aS'http://en.wikipedia.org/wiki/Texarkana_College'
p1202
aS'http://en.wikipedia.org/wiki/Academic_Mobility_Network'
p1203
aS'http://en.wikipedia.org/wiki/California_Polytechnic_State_University'
p1204
aS'http://en.wikipedia.org/wiki/Interaction_design'
p1205
aS'http://en.wikipedia.org/wiki/Youth_engagement'
p1206
aS'http://en.wikipedia.org/wiki/Zak%C5%82ad_Naukowo-Wychowawczy_Ojc%C3%B3w_Jezuit%C3%B3w_w_Chyrowie'
p1207
aS'http://en.wikipedia.org/wiki/Texas_Blazers'
p1208
aS'http://en.wikipedia.org/wiki/Michener_Center_for_Writers'
p1209
aS'http://en.wikipedia.org/wiki/Write-only_documentation'
p1210
aS'http://en.wikipedia.org/wiki/Shima_Shima_Tora_no_Shimajir%C5%8D'
p1211
aS'http://en.wikipedia.org/wiki/Bacteriologist_(Professional)'
p1212
aS'http://en.wikipedia.org/wiki/West_Virginia_State_University'
p1213
aS'http://en.wikipedia.org/wiki/Curriculum_studies'
p1214
aS'http://en.wikipedia.org/wiki/Perry%E2%80%93Casta%C3%B1eda_Library'
p1215
aS'http://en.wikipedia.org/wiki/Meredith_College'
p1216
aS'http://en.wikipedia.org/wiki/Nashville_State_Community_College'
p1217
aS'http://en.wikipedia.org/wiki/University_of_California,_Irvine'
p1218
aS'http://en.wikipedia.org/wiki/Fishbowl_(conversation)'
p1219
aS'http://en.wikipedia.org/wiki/How-to'
p1220
aS'http://en.wikipedia.org/wiki/Victoria_College_(Texas)'
p1221
aS'http://en.wikipedia.org/wiki/Ontology_for_Biomedical_Investigations'
p1222
aS'http://en.wikipedia.org/wiki/Paul_Moreno'
p1223
aS'http://en.wikipedia.org/wiki/Jackson_State_University'
p1224
aS'http://en.wikipedia.org/wiki/Indian_Statistical_Institute'
p1225
aS'http://en.wikipedia.org/wiki/Congress_of_Roman_Frontier_Studies'
p1226
aS'http://en.wikipedia.org/wiki/Junior_school'
p1227
aS'http://en.wikipedia.org/wiki/Volksschule'
p1228
aS'http://en.wikipedia.org/wiki/Del_Mar_College'
p1229
aS'http://en.wikipedia.org/wiki/Consortium_for_North_American_Higher_Education_Collaboration'
p1230
aS'http://en.wikipedia.org/wiki/Academic_publishing'
p1231
aS'http://en.wikipedia.org/wiki/Spelman_College'
p1232
aS'http://en.wikipedia.org/wiki/Business_school'
p1233
aS'http://en.wikipedia.org/wiki/Southern_Baptist_Theological_Seminary'
p1234
aS'http://en.wikipedia.org/wiki/Jones_County_Junior_College'
p1235
aS'http://en.wikipedia.org/wiki/Buddhist_studies'
p1236
aS'http://en.wikipedia.org/wiki/Nova_Southeastern_University'
p1237
aS'http://en.wikipedia.org/wiki/Tri-County_Community_College'
p1238
aS'http://en.wikipedia.org/wiki/University_of_Santiago,_Chile'
p1239
aS'http://en.wikipedia.org/wiki/Counter_Culture_Coffee'
p1240
aS'http://en.wikipedia.org/wiki/University_System_of_Georgia'
p1241
aS'http://en.wikipedia.org/wiki/Belmont_University'
p1242
aS'http://en.wikipedia.org/wiki/Second_School_War'
p1243
aS'http://en.wikipedia.org/wiki/Escuela_Bella_Vista'
p1244
aS'http://en.wikipedia.org/wiki/Pontifical_university'
p1245
aS'http://en.wikipedia.org/wiki/Encyclopedia_of_Ukraine'
p1246
aS'http://en.wikipedia.org/wiki/Longwood_University'
p1247
aS'http://en.wikipedia.org/wiki/University_constituency'
p1248
aS'http://en.wikipedia.org/wiki/Cross_Cancer_Institute'
p1249
aS'http://en.wikipedia.org/wiki/Brevard_College'
p1250
aS'http://en.wikipedia.org/wiki/Piedmont_College'
p1251
aS'http://en.wikipedia.org/wiki/Art_Institute_of_Atlanta'
p1252
aS'http://en.wikipedia.org/wiki/North_Hertfordshire_College'
p1253
aS'http://en.wikipedia.org/wiki/Saint_Paul%27s_College,_Virginia'
p1254
aS'http://en.wikipedia.org/wiki/Elon_University'
p1255
aS'http://en.wikipedia.org/wiki/The_Center_for_Complex_Quantum_Systems'
p1256
aS'http://en.wikipedia.org/wiki/Princeton_University'
p1257
aS'http://en.wikipedia.org/wiki/Rust_College'
p1258
aS'http://en.wikipedia.org/wiki/Eigenfactor'
p1259
aS'http://en.wikipedia.org/wiki/Saint_Leo_University'
p1260
aS'http://en.wikipedia.org/wiki/Missouri_Wesleyan_College'
p1261
aS'http://en.wikipedia.org/wiki/Thomas_A._Bartlett'
p1262
aS'http://en.wikipedia.org/wiki/University_of_Alberta'
p1263
aS'http://en.wikipedia.org/wiki/ISO_15926'
p1264
aS'http://en.wikipedia.org/wiki/Kansas_State_University'
p1265
aS'http://en.wikipedia.org/wiki/Beta_Upsilon_Chi'
p1266
aS'http://en.wikipedia.org/wiki/Harvard_Project_Physics'
p1267
aS'http://en.wikipedia.org/wiki/Institut_national_de_la_recherche_scientifique'
p1268
aS'http://en.wikipedia.org/wiki/Everyday_Mathematics'
p1269
aS'http://en.wikipedia.org/wiki/Alexis_de_Tocqueville_Center_for_Political_and_Legal_Thought'
p1270
aS'http://en.wikipedia.org/wiki/Course_credit'
p1271
aS'http://en.wikipedia.org/wiki/Supplemental_Instruction'
p1272
aS'http://en.wikipedia.org/wiki/European_League_of_Institutes_of_the_Arts'
p1273
aS'http://en.wikipedia.org/wiki/Roanoke_College'
p1274
aS'http://en.wikipedia.org/wiki/Avicenna_Directories'
p1275
aS'http://en.wikipedia.org/wiki/Alumni_association'
p1276
aS'http://en.wikipedia.org/wiki/Edited_volume'
p1277
aS'http://en.wikipedia.org/wiki/IMARK'
p1278
aS'http://en.wikipedia.org/wiki/Association_of_American_Universities'
p1279
aS'http://en.wikipedia.org/wiki/Educology'
p1280
aS'http://en.wikipedia.org/wiki/Howard_College'
p1281
aS'http://en.wikipedia.org/wiki/Center_for_Retrospective_Digitization'
p1282
aS'http://en.wikipedia.org/wiki/North_Carolina_State_University'
p1283
aS'http://en.wikipedia.org/wiki/Miami_International_University_of_Art_%26_Design'
p1284
aS'http://en.wikipedia.org/wiki/Wagner_College'
p1285
aS'http://en.wikipedia.org/wiki/Some_Thoughts_Concerning_Education'
p1286
aS'http://en.wikipedia.org/wiki/Regional_Conference_on_Higher_Education_2008'
p1287
aS'http://en.wikipedia.org/wiki/University_of_Central_Florida'
p1288
aS'http://en.wikipedia.org/wiki/Biola_Media_Conference'
p1289
aS'http://en.wikipedia.org/wiki/Religious_studies'
p1290
aS'http://en.wikipedia.org/wiki/Curriculum'
p1291
aS'http://en.wikipedia.org/wiki/South_Dakota_School_of_Mines_and_Technology'
p1292
aS'http://en.wikipedia.org/wiki/Instructional_design'
p1293
aS'http://en.wikipedia.org/wiki/Working_People%27s_Art_Class'
p1294
aS'http://en.wikipedia.org/wiki/AUTOMEET'
p1295
aS'http://en.wikipedia.org/wiki/Viral_Hepatitis_Congress'
p1296
aS'http://en.wikipedia.org/wiki/Scientific_citation'
p1297
aS'http://en.wikipedia.org/wiki/Article-level_metrics'
p1298
aS'http://en.wikipedia.org/wiki/Efficient_use_of_our_resources'
p1299
aS'http://en.wikipedia.org/wiki/Savannah_State_University'
p1300
aS'http://en.wikipedia.org/wiki/Montclair_State_University'
p1301
aS'http://en.wikipedia.org/wiki/Blue_Mountain_College'
p1302
aS'http://en.wikipedia.org/wiki/Southcentral_Kentucky_Community_and_Technical_College'
p1303
aS'http://en.wikipedia.org/wiki/Troy_University'
p1304
aS'http://en.wikipedia.org/wiki/Deweyism'
p1305
aS'http://en.wikipedia.org/wiki/Guru-shishya_tradition'
p1306
aS'http://en.wikipedia.org/wiki/University_of_Arkansas'
p1307
aS'http://en.wikipedia.org/wiki/FinTS'
p1308
aS'http://en.wikipedia.org/wiki/Central_Virginia_Community_College'
p1309
aS'http://en.wikipedia.org/wiki/Humboldt_University_of_Berlin'
p1310
aS'http://en.wikipedia.org/wiki/Academic_conference'
p1311
aS'http://en.wikipedia.org/wiki/Michael_W._Kirst'
p1312
aS'http://en.wikipedia.org/wiki/Micro-conference'
p1313
aS'http://en.wikipedia.org/wiki/University_of_Texas_Solar_Vehicles_Team'
p1314
aS'http://en.wikipedia.org/wiki/Bowling_Green_State_University'
p1315
aS'http://en.wikipedia.org/wiki/University_of_Maryland_Honors_College'
p1316
aS'http://en.wikipedia.org/wiki/LIFO_(education)'
p1317
aS'http://en.wikipedia.org/wiki/University_of_Rochester'
p1318
aS'http://en.wikipedia.org/wiki/Orangeburg%E2%80%93Calhoun_Technical_College'
p1319
aS'http://en.wikipedia.org/wiki/Chaffey_College'
p1320
aS'http://en.wikipedia.org/wiki/MIPTV_Media_Market'
p1321
aS'http://en.wikipedia.org/wiki/Southeastern_Technical_College'
p1322
aS'http://en.wikipedia.org/wiki/Southwestern_Community_College_(North_Carolina)'
p1323
aS'http://en.wikipedia.org/wiki/Society_for_Technical_Communication'
p1324
aS'http://en.wikipedia.org/wiki/Stanly_Community_College'
p1325
aS'http://en.wikipedia.org/wiki/University_of_Washington'
p1326
aS'http://en.wikipedia.org/wiki/South_Carolina_State_University'
p1327
aS'http://en.wikipedia.org/wiki/Western_Carolina_University'
p1328
aS'http://en.wikipedia.org/wiki/University_of_North_Carolina_School_of_the_Arts'
p1329
aS'http://en.wikipedia.org/wiki/Paideia'
p1330
aS'http://en.wikipedia.org/wiki/King_Edward_VI_Camp_Hill_School_for_Girls'
p1331
aS'http://en.wikipedia.org/wiki/Jnana-Deepa_Vidyapeeth'
p1332
aS'http://en.wikipedia.org/wiki/Volta_Conference'
p1333
aS'http://en.wikipedia.org/wiki/Party_conference'
p1334
aS'http://en.wikipedia.org/wiki/Lyceum_movement'
p1335
aS'http://en.wikipedia.org/wiki/Student-centred_learning'
p1336
aS'http://en.wikipedia.org/wiki/Society_for_the_Diffusion_of_Useful_Knowledge'
p1337
aS'http://en.wikipedia.org/wiki/Worldwide_Center_of_Mathematics'
p1338
aS'http://en.wikipedia.org/wiki/University_of_Missouri'
p1339
aS'http://en.wikipedia.org/wiki/Western_Conference_on_Linguistics'
p1340
aS'http://en.wikipedia.org/wiki/Jan_III_Sobieski_High_School_in_Krak%C3%B3w'
p1341
aS'http://en.wikipedia.org/wiki/Higher_education_leadership'
p1342
aS'http://en.wikipedia.org/wiki/Recognition_of_prior_learning'
p1343
aS'http://en.wikipedia.org/wiki/Tertiary_education'
p1344
aS'http://en.wikipedia.org/wiki/Amberton_University'
p1345
aS'http://en.wikipedia.org/wiki/Haywood_Community_College'
p1346
aS'http://en.wikipedia.org/wiki/EasyChair'
p1347
aS'http://en.wikipedia.org/wiki/%C4%8Cesk%C3%A1_spole%C4%8Dnost_pro_v%C4%9Bdeckou_a_technickou_komunikaci'
p1348
aS'http://en.wikipedia.org/wiki/Teesside_High_School'
p1349
aS'http://en.wikipedia.org/wiki/1982_Barnard_Conference_on_Sexuality'
p1350
aS'http://en.wikipedia.org/wiki/Columbia_International_University'
p1351
aS'http://en.wikipedia.org/wiki/Lindsey_Wilson_College'
p1352
aS'http://en.wikipedia.org/wiki/Art_school'
p1353
aS'http://en.wikipedia.org/wiki/Nash_Community_College'
p1354
aS'http://en.wikipedia.org/wiki/Process_analysis'
p1355
aS'http://en.wikipedia.org/wiki/English-medium_education'
p1356
aS'http://en.wikipedia.org/wiki/University_of_New_Mexico'
p1357
aS'http://en.wikipedia.org/wiki/Infant_school'
p1358
aS'http://en.wikipedia.org/wiki/University_of_Illinois_at_Chicago'
p1359
aS'http://en.wikipedia.org/wiki/History_of_European_research_universities'
p1360
aS'http://en.wikipedia.org/wiki/Professional_learning_community'
p1361
aS'http://en.wikipedia.org/wiki/Harvard_University'
p1362
aS'http://en.wikipedia.org/wiki/Kapaa_High_School'
p1363
aS'http://en.wikipedia.org/wiki/Curriki'
p1364
aS'http://en.wikipedia.org/wiki/Harry_C._Giese'
p1365
aS'http://en.wikipedia.org/wiki/CJSR-FM'
p1366
aS'http://en.wikipedia.org/wiki/Fayetteville_State_University'
p1367
aS'http://en.wikipedia.org/wiki/University_of_California,_Davis'
p1368
aS'http://en.wikipedia.org/wiki/University_of_California,_Santa_Cruz'
p1369
aS'http://en.wikipedia.org/wiki/University_of_California,_Los_Angeles_Library'
p1370
aS'http://en.wikipedia.org/wiki/Vocational_school'
p1371
aS'http://en.wikipedia.org/wiki/University_system'
p1372
aS'http://en.wikipedia.org/wiki/Vexation_and_Venture'
p1373
aS'http://en.wikipedia.org/wiki/University_of_Texas_Elementary_School'
p1374
aS'http://en.wikipedia.org/wiki/Placebo_studies'
p1375
aS'http://en.wikipedia.org/wiki/Purpose_Network'
p1376
aS'http://en.wikipedia.org/wiki/Sree_Rama_Polytechnic'
p1377
aS'http://en.wikipedia.org/wiki/Association_for_Logic,_Language_and_Information'
p1378
aS'http://en.wikipedia.org/wiki/Ohio_Wesleyan_University'
p1379
aS'http://en.wikipedia.org/wiki/Least_publishable_unit'
p1380
aS'http://en.wikipedia.org/wiki/Bryan_College'
p1381
aS'http://en.wikipedia.org/wiki/Waldorf_education'
p1382
aS'http://en.wikipedia.org/wiki/LSU_Health_Sciences_Center_New_Orleans'
p1383
aS'http://en.wikipedia.org/wiki/BritGrav'
p1384
aS'http://en.wikipedia.org/wiki/Classifications_of_scholarship'
p1385
aS'http://en.wikipedia.org/wiki/Journal_Citation_Reports'
p1386
aS'http://en.wikipedia.org/wiki/Ondo_State_University_of_Science_and_Technology'
p1387
aS'http://en.wikipedia.org/wiki/Karzer'
p1388
aS'http://en.wikipedia.org/wiki/University_of_Arkansas_at_Pine_Bluff'
p1389
aS'http://en.wikipedia.org/wiki/Indian_Institute'
p1390
aS'http://en.wikipedia.org/wiki/National_University_(California)'
p1391
aS'http://en.wikipedia.org/wiki/Kerala_University_of_Health_Sciences'
p1392
aS'http://en.wikipedia.org/wiki/The_University_of_Texas_Longhorn_Band'
p1393
aS'http://en.wikipedia.org/wiki/Indian_River_State_College'
p1394
aS'http://en.wikipedia.org/wiki/Canadian_Studies_in_Population'
p1395
aS'http://en.wikipedia.org/wiki/Oxford_Abstracts'
p1396
aS'http://en.wikipedia.org/wiki/Meharry_Medical_College'
p1397
aS'http://en.wikipedia.org/wiki/Goodyear_Polymer_Center'
p1398
aS'http://en.wikipedia.org/wiki/Geography'
p1399
aS'http://en.wikipedia.org/wiki/FlashNotes'
p1400
aS'http://en.wikipedia.org/wiki/Holy_Trinity_High_School_(Winsted,_Minnesota)'
p1401
aS'http://en.wikipedia.org/wiki/Reykjav%C3%ADk_University'
p1402
aS'http://en.wikipedia.org/wiki/The_Catholic_University_of_America'
p1403
aS'http://en.wikipedia.org/wiki/User_guide'
p1404
aS'http://en.wikipedia.org/wiki/K-16_(education)'
p1405
aS'http://en.wikipedia.org/wiki/Satellite_campus'
p1406
aS'http://en.wikipedia.org/wiki/Pontifical_Xavierian_University'
p1407
aS'http://en.wikipedia.org/wiki/Science_of_team_science'
p1408
aS'http://en.wikipedia.org/wiki/San_Jose_State_University'
p1409
aS'http://en.wikipedia.org/wiki/Freed%E2%80%93Hardeman_University'
p1410
aS'http://en.wikipedia.org/wiki/The_Rockefeller_University'
p1411
aS'http://en.wikipedia.org/wiki/Clarendon_College_(Texas)'
p1412
aS'http://en.wikipedia.org/wiki/Persona_(user_experience)'
p1413
aS'http://en.wikipedia.org/wiki/University_of_Strasbourg'
p1414
aS'http://en.wikipedia.org/wiki/Tutorial'
p1415
aS'http://en.wikipedia.org/wiki/Legacy_preferences'
p1416
aS'http://en.wikipedia.org/wiki/Purpose-guided_education'
p1417
aS'http://en.wikipedia.org/wiki/North_Carolina_Agricultural_and_Technical_State_University'
p1418
aS'http://en.wikipedia.org/wiki/Philosophy_of_Education_Society_of_Great_Britain'
p1419
aS'http://en.wikipedia.org/wiki/Accademia_degli_Intronati'
p1420
aS'http://en.wikipedia.org/wiki/Gateshead_Grammar_School'
p1421
aS'http://en.wikipedia.org/wiki/Columbia_College_(South_Carolina)'
p1422
aS'http://en.wikipedia.org/wiki/Appropriation_(education)'
p1423
aS'http://en.wikipedia.org/wiki/Teacher_Loan_Forgiveness'
p1424
aS'http://en.wikipedia.org/wiki/Technische_Universit%C3%A4t_M%C3%BCnchen'
p1425
aS'http://en.wikipedia.org/wiki/Graduation'
p1426
aS'http://en.wikipedia.org/wiki/Athens_State_University'
p1427
aS'http://en.wikipedia.org/wiki/Virginia_Tech'
p1428
aS'http://en.wikipedia.org/wiki/Calhoun_Community_College'
p1429
aS'http://en.wikipedia.org/wiki/Cooerwull_Academy'
p1430
aS'http://en.wikipedia.org/wiki/U.S._%E2%80%93_Northern_Ireland_Investment_Conference'
p1431
aS'http://en.wikipedia.org/wiki/State_University_of_New_York'
p1432
aS'http://en.wikipedia.org/wiki/Ardvreck_School'
p1433
aS'http://en.wikipedia.org/wiki/Rutgers_Formula_Racing'
p1434
aS'http://en.wikipedia.org/wiki/CariPac'
p1435
aS'http://en.wikipedia.org/wiki/Martha_Diaz'
p1436
aS'http://en.wikipedia.org/wiki/Allen-Stevenson_School'
p1437
aS'http://en.wikipedia.org/wiki/The_Amaz!ng_Meeting'
p1438
aS'http://en.wikipedia.org/wiki/Carnegie_Mellon_University'
p1439
aS'http://en.wikipedia.org/wiki/Nicholls_State_University'
p1440
aS'http://en.wikipedia.org/wiki/Documentary_research'
p1441
aS'http://en.wikipedia.org/wiki/Bethesda_Statement_on_Open_Access_Publishing'
p1442
aS'http://en.wikipedia.org/wiki/Further_education'
p1443
aS'http://en.wikipedia.org/wiki/University_of_Pennsylvania'
p1444
aS'http://en.wikipedia.org/wiki/Helen_Doron_method'
p1445
aS'http://en.wikipedia.org/wiki/Academic_rank_in_Sweden'
p1446
aS'http://en.wikipedia.org/wiki/Star_of_the_Sea_College'
p1447
aS'http://en.wikipedia.org/wiki/College'
p1448
aS'http://en.wikipedia.org/wiki/Grambling_State_University'
p1449
aS'http://en.wikipedia.org/wiki/Central_Carolina_Community_College'
p1450
aS'http://en.wikipedia.org/wiki/Schulich_School_of_Law'
p1451
aS'http://en.wikipedia.org/wiki/Academic_imperialism'
p1452
aS'http://en.wikipedia.org/wiki/Warner_University'
p1453
aS'http://en.wikipedia.org/wiki/Robert_Maynard_Hutchins'
p1454
aS'http://en.wikipedia.org/wiki/Preprint'
p1455
aS'http://en.wikipedia.org/wiki/State_College_of_Florida,_Manatee%E2%80%93Sarasota'
p1456
aS'http://en.wikipedia.org/wiki/Unconference'
p1457
aS'http://en.wikipedia.org/wiki/Phnom_Penh_Institute_of_Technology'
p1458
aS'http://en.wikipedia.org/wiki/Office_Assistant'
p1459
aS'http://en.wikipedia.org/wiki/PROSE_Awards'
p1460
aS'http://en.wikipedia.org/wiki/AISTS'
p1461
aS'http://en.wikipedia.org/wiki/Watkins_College_of_Art,_Design_%26_Film'
p1462
aS'http://en.wikipedia.org/wiki/Geohorizon'
p1463
aS'http://en.wikipedia.org/wiki/Panola_College'
p1464
aS'http://en.wikipedia.org/wiki/Course_equivalency'
p1465
aS'http://en.wikipedia.org/wiki/Samford_University'
p1466
aS'http://en.wikipedia.org/wiki/Aiken_Technical_College'
p1467
aS'http://en.wikipedia.org/wiki/Foundation_programme'
p1468
aS'http://en.wikipedia.org/wiki/Bridge_program_(higher_education)'
p1469
aS'http://en.wikipedia.org/wiki/Stouffville_College'
p1470
aS'http://en.wikipedia.org/wiki/Xavier_University_of_Louisiana'
p1471
aS'http://en.wikipedia.org/wiki/University_of_New_Orleans'
p1472
aS'http://en.wikipedia.org/wiki/Alternative_Education_Resource_Organization'
p1473
aS'http://en.wikipedia.org/wiki/University_of_North_Carolina_at_Charlotte'
p1474
aS'http://en.wikipedia.org/wiki/Florida_A%26M_University'
p1475
aS'http://en.wikipedia.org/wiki/International_Congress_of_Actuaries'
p1476
aS'http://en.wikipedia.org/wiki/Denison_College'
p1477
aS'http://en.wikipedia.org/wiki/Fisher_v._University_of_Texas'
p1478
aS'http://en.wikipedia.org/wiki/Authentic_Learning'
p1479
aS'http://en.wikipedia.org/wiki/Art_and_Design_Admissions_Registry'
p1480
aS'http://en.wikipedia.org/wiki/Alabama_Agricultural_and_Mechanical_University'
p1481
aS'http://en.wikipedia.org/wiki/Ludwig_Maximilian_University_of_Munich'
p1482
aS'http://en.wikipedia.org/wiki/Edublog'
p1483
aS'http://en.wikipedia.org/wiki/Parker_University'
p1484
aS'http://en.wikipedia.org/wiki/Universidad_de_Sonora'
p1485
aS'http://en.wikipedia.org/wiki/Eastern_New_Mexico_University'
p1486
aS'http://en.wikipedia.org/wiki/Heutagogy'
p1487
aS'http://en.wikipedia.org/wiki/Texas_Tech_University'
p1488
aS'http://en.wikipedia.org/wiki/Pre-kindergarten'
p1489
aS'http://en.wikipedia.org/wiki/Hinds_Community_College'
p1490
aS'http://en.wikipedia.org/wiki/University_of_Houston%E2%80%93Victoria'
p1491
aS'http://en.wikipedia.org/wiki/Local_college_and_university_(Philippines)'
p1492
aS'http://en.wikipedia.org/wiki/SCImago_Journal_Rank'
p1493
aS'http://en.wikipedia.org/wiki/Rollins_College'
p1494
aS'http://en.wikipedia.org/wiki/North_Idaho_College'
p1495
aS'http://en.wikipedia.org/wiki/Kentucky_Christian_University'
p1496
aS'http://en.wikipedia.org/wiki/Monograph'
p1497
aS'http://en.wikipedia.org/wiki/JISC_Collections'
p1498
aS'http://en.wikipedia.org/wiki/MediaCommons'
p1499
aS'http://en.wikipedia.org/wiki/Professional_communication'
p1500
aS'http://en.wikipedia.org/wiki/TRECVID'
p1501
aS'http://en.wikipedia.org/wiki/Welch_College'
p1502
aS'http://en.wikipedia.org/wiki/University_of_California,_Berkeley_School_of_Public_Health'
p1503
aS'http://en.wikipedia.org/wiki/Inservice_program'
p1504
aS'http://en.wikipedia.org/wiki/The_Colleges_of_William_%26_Mary'
p1505
aS'http://en.wikipedia.org/wiki/Texas_Health_and_Science_University'
p1506
aS'http://en.wikipedia.org/wiki/Eclipse_(software_suite)'
p1507
aS'http://en.wikipedia.org/wiki/Southwestern_University'
p1508
aS'http://en.wikipedia.org/wiki/Legal_history'
p1509
aS'http://en.wikipedia.org/wiki/Augusta_Technical_College'
p1510
aS'http://en.wikipedia.org/wiki/University_of_Colima'
p1511
aS'http://en.wikipedia.org/wiki/Mississippi_Gulf_Coast_Community_College'
p1512
aS'http://en.wikipedia.org/wiki/EbXML'
p1513
aS'http://en.wikipedia.org/wiki/Upananda_College'
p1514
aS'http://en.wikipedia.org/wiki/Southwest_Mississippi_Community_College'
p1515
aS'http://en.wikipedia.org/wiki/Montana_State_University'
p1516
aS'http://en.wikipedia.org/wiki/Mississippi_College'
p1517
aS'http://en.wikipedia.org/wiki/Texas_Law_Review'
p1518
aS'http://en.wikipedia.org/wiki/Source_(International_Information_Support_Centre)'
p1519
aS'http://en.wikipedia.org/wiki/JoAnn_Hackos'
p1520
aS'http://en.wikipedia.org/wiki/InfoAg_Conference'
p1521
aS'http://en.wikipedia.org/wiki/University_of_Nebraska%E2%80%93Lincoln'
p1522
aS'http://en.wikipedia.org/wiki/Lone_Star_College_System'
p1523
aS'http://en.wikipedia.org/wiki/European_Council_for_Distance_Learning'
p1524
aS'http://en.wikipedia.org/wiki/Oblate_School_of_Theology'
p1525
aS'http://en.wikipedia.org/wiki/Currere'
p1526
aS'http://en.wikipedia.org/wiki/St._Edward%27s_University'
p1527
aS'http://en.wikipedia.org/wiki/Savannah_College_of_Art_and_Design'
p1528
aS'http://en.wikipedia.org/wiki/Mid-South_Community_College'
p1529
aS'http://en.wikipedia.org/wiki/King_Edward_VI_Aston_School'
p1530
aS'http://en.wikipedia.org/wiki/National_university'
p1531
aS'http://en.wikipedia.org/wiki/Virtual_mobility'
p1532
aS'http://en.wikipedia.org/wiki/A_Vindication_of_the_Rights_of_Woman'
p1533
aS'http://en.wikipedia.org/wiki/University_of_Louisville'
p1534
aS'http://en.wikipedia.org/wiki/University_of_Colorado'
p1535
aS'http://en.wikipedia.org/wiki/Normal_school'
p1536
aS'http://en.wikipedia.org/wiki/Registry_of_Open_Access_Repositories'
p1537
aS'http://en.wikipedia.org/wiki/Applied_academics'
p1538
aS'http://en.wikipedia.org/wiki/Suez_University'
p1539
aS'http://en.wikipedia.org/wiki/The_Durham_Union_Society'
p1540
aS'http://en.wikipedia.org/wiki/Edmonton_Clinic_Health_Academy'
p1541
aS'http://en.wikipedia.org/wiki/Northwestern_University'
p1542
aS'http://en.wikipedia.org/wiki/Trulaske_College_of_Business'
p1543
aS'http://en.wikipedia.org/wiki/University_of_Alcal%C3%A1'
p1544
aS'http://en.wikipedia.org/wiki/Man:_A_Course_of_Study'
p1545
aS'http://en.wikipedia.org/wiki/Volunteer_State_Community_College'
p1546
aS'http://en.wikipedia.org/wiki/Academic_discourse_socialization'
p1547
aS'http://en.wikipedia.org/wiki/Kerala_Veterinary_and_Animal_Sciences_University'
p1548
aS'http://en.wikipedia.org/wiki/Israel_Technology_Transfer_Organization'
p1549
aS'http://en.wikipedia.org/wiki/University_of_Alabama_in_Huntsville'
p1550
aS'http://en.wikipedia.org/wiki/International_studies'
p1551
aS'http://en.wikipedia.org/wiki/Association_of_Public_and_Land-grant_Universities'
p1552
aS'http://en.wikipedia.org/wiki/Easytrade'
p1553
aS'http://en.wikipedia.org/wiki/Tertiary_enrollment'
p1554
aS'http://en.wikipedia.org/wiki/Public_policy_school'
p1555
aS'http://en.wikipedia.org/wiki/International_Security_Forum'
p1556
aS'http://en.wikipedia.org/wiki/Baku_Higher_Oil_School'
p1557
aS'http://en.wikipedia.org/wiki/Texas_A%26M_University%E2%80%93Corpus_Christi'
p1558
aS'http://en.wikipedia.org/wiki/Allen_University'
p1559
aS'http://en.wikipedia.org/wiki/Critical_pedagogy'
p1560
aS'http://en.wikipedia.org/wiki/Georgetown_University'
p1561
aS'http://en.wikipedia.org/wiki/W._E._B._Du_Bois_Institute'
p1562
aS'http://en.wikipedia.org/wiki/National_Autonomous_University_of_Mexico'
p1563
aS'http://en.wikipedia.org/wiki/Doctest'
p1564
aS'http://en.wikipedia.org/wiki/Northern_Virginia_Community_College'
p1565
aS'http://en.wikipedia.org/wiki/Gordon_Music_Learning_Theory'
p1566
aS'http://en.wikipedia.org/wiki/Critical_thinking'
p1567
aS'http://en.wikipedia.org/wiki/History_of_legal_education_in_Serbia'
p1568
aS'http://en.wikipedia.org/wiki/The_Gateway_(newspaper)'
p1569
aS'http://en.wikipedia.org/wiki/State_university_system'
p1570
aS'http://en.wikipedia.org/wiki/Double_loop_learning'
p1571
aS'http://en.wikipedia.org/wiki/International_Congress_of_Americanists'
p1572
aS'http://en.wikipedia.org/wiki/University_of_California,_Riverside'
p1573
aS'http://en.wikipedia.org/wiki/XCHM'
p1574
aS'http://en.wikipedia.org/wiki/Liberal_arts_education'
p1575
aS'http://en.wikipedia.org/wiki/Michigan_Technological_University'
p1576
aS'http://en.wikipedia.org/wiki/University_of_South_Florida_St._Petersburg'
p1577
aS'http://en.wikipedia.org/wiki/Grayson_County_College'
p1578
aS'http://en.wikipedia.org/wiki/Translators_Association_of_China'
p1579
aS'http://en.wikipedia.org/wiki/History_of_the_University_of_Texas_at_Austin'
p1580
aS'http://en.wikipedia.org/wiki/Sexism_in_academia'
p1581
aS'http://en.wikipedia.org/wiki/Institutional_dichotomy'
p1582
aS'http://en.wikipedia.org/wiki/Oregon_University_System'
p1583
aS'http://en.wikipedia.org/wiki/Western_Electric_rules'
p1584
aS'http://en.wikipedia.org/wiki/California_Postsecondary_Education_Commission'
p1585
aS'http://en.wikipedia.org/wiki/General_knowledge'
p1586
aS'http://en.wikipedia.org/wiki/Sandhills_Community_College'
p1587
aS'http://en.wikipedia.org/wiki/US-China_Education_Trust'
p1588
aS'http://en.wikipedia.org/wiki/Middle_East_Electricity'
p1589
aS'http://en.wikipedia.org/wiki/Southern_Wesleyan_University'
p1590
aS'http://en.wikipedia.org/wiki/Atlanta_Technical_College'
p1591
aS'http://en.wikipedia.org/wiki/Universidad_T%C3%A9cnica_Particular_de_Loja'
p1592
aS'http://en.wikipedia.org/wiki/Tarleton_State_University'
p1593
aS'http://en.wikipedia.org/wiki/Bryan_University'
p1594
aS'http://en.wikipedia.org/wiki/Inclusion_(education)'
p1595
aS'http://en.wikipedia.org/wiki/ARDI'
p1596
aS'http://en.wikipedia.org/wiki/F%C3%BCrsteneck_Castle'
p1597
aS'http://en.wikipedia.org/wiki/Johns_Hopkins_University'
p1598
aS'http://en.wikipedia.org/wiki/Academic_achievement'
p1599
aS'http://en.wikipedia.org/wiki/Lenoir_Community_College'
p1600
aS'http://en.wikipedia.org/wiki/University_of_Cincinnati'
p1601
aS'http://en.wikipedia.org/wiki/Academic_audit'
p1602
aS'http://en.wikipedia.org/wiki/Alternative_break'
p1603
aS'http://en.wikipedia.org/wiki/Georgia_College_%26_State_University'
p1604
aS'http://en.wikipedia.org/wiki/Rehema_Ellis'
p1605
aS'http://en.wikipedia.org/wiki/St_Ronan%27s_School'
p1606
aS'http://en.wikipedia.org/wiki/Unschooling'
p1607
aS'http://en.wikipedia.org/wiki/College_of_Charleston'
p1608
aS'http://en.wikipedia.org/wiki/St._Johns_River_State_College'
p1609
aS'http://en.wikipedia.org/wiki/King_Edward_VI_High_School_for_Girls,_Birmingham'
p1610
aS'http://en.wikipedia.org/wiki/Karlsruhe_Congress'
p1611
aS'http://en.wikipedia.org/wiki/Lamar_Institute_of_Technology'
p1612
aS'http://en.wikipedia.org/wiki/New_River_Community_College'
p1613
aS'http://en.wikipedia.org/wiki/Roof_and_tunnel_hacking'
p1614
aS'http://en.wikipedia.org/wiki/Dual_credit_enrollment'
p1615
aS'http://en.wikipedia.org/wiki/University_of_Murcia'
p1616
aS'http://en.wikipedia.org/wiki/QoMEX'
p1617
aS'http://en.wikipedia.org/wiki/Emergent_curriculum'
p1618
aS'http://en.wikipedia.org/wiki/Northern_Arizona_University'
p1619
aS'http://en.wikipedia.org/wiki/Bangladesh_Journals_OnLine_(BanglaJOL)'
p1620
aS'http://en.wikipedia.org/wiki/Autonomous_University_of_Sinaloa'
p1621
aS'http://en.wikipedia.org/wiki/Brite_Divinity_School'
p1622
aS'http://en.wikipedia.org/wiki/University_of_Houston%E2%80%93Clear_Lake'
p1623
aS'http://en.wikipedia.org/wiki/Release_notes'
p1624
aS'http://en.wikipedia.org/wiki/Content_re-appropriation'
p1625
aS'http://en.wikipedia.org/wiki/Offshore_Campus'
p1626
aS'http://en.wikipedia.org/wiki/School_of_International_Service'
p1627
aS'http://en.wikipedia.org/wiki/Wannsee_House_and_the_Holocaust'
p1628
aS'http://en.wikipedia.org/wiki/Professional_student'
p1629
aS'http://en.wikipedia.org/wiki/University_of_Idaho'
p1630
aS'http://en.wikipedia.org/wiki/Concordia_University'
p1631
aS'http://en.wikipedia.org/wiki/Comprehensive_school'
p1632
aS'http://en.wikipedia.org/wiki/Arts-based_environmental_education'
p1633
aS'http://en.wikipedia.org/wiki/Morgan_State_University'
p1634
aS'http://en.wikipedia.org/wiki/North_Georgia_Technical_College'
p1635
aS'http://en.wikipedia.org/wiki/Charles_D._Hayes'
p1636
aS'http://en.wikipedia.org/wiki/Scholarly_method'
p1637
aS'http://en.wikipedia.org/wiki/Learning_Resource_Metadata_Initiative'
p1638
aS'http://en.wikipedia.org/wiki/Bilan_d%27aptitude_d%C3%A9livr%C3%A9_par_les_grandes_%C3%A9coles'
p1639
aS'http://en.wikipedia.org/wiki/Quadrangle_(architecture)'
p1640
aS'http://en.wikipedia.org/wiki/Sura_Academy'
p1641
aS'http://en.wikipedia.org/wiki/Tallahassee_Community_College'
p1642
aS'http://en.wikipedia.org/wiki/Clymer_repair_manual'
p1643
aS'http://en.wikipedia.org/wiki/EDUindex'
p1644
aS'http://en.wikipedia.org/wiki/Louisiana_College'
p1645
aS'http://en.wikipedia.org/wiki/Cleveland_State_Community_College'
p1646
aS'http://en.wikipedia.org/wiki/University_of_North_Carolina_at_Chapel_Hill'
p1647
aS'http://en.wikipedia.org/wiki/Albany_Technical_College'
p1648
aS'http://en.wikipedia.org/wiki/Predoctoral_fellow'
p1649
aS'http://en.wikipedia.org/wiki/Walters_State_Community_College'
p1650
aS'http://en.wikipedia.org/wiki/Enhancing_Student_Mobility_through_Online_Support'
p1651
aS'http://en.wikipedia.org/wiki/Research_Experiences_for_Undergraduates'
p1652
aS'http://en.wikipedia.org/wiki/Flowchart'
p1653
aS'http://en.wikipedia.org/wiki/Baptist_Missionary_Association_Theological_Seminary'
p1654
aS'http://en.wikipedia.org/wiki/Tennessee_Technological_University'
p1655
aS'http://en.wikipedia.org/wiki/College_of_Southern_Idaho'
p1656
aS'http://en.wikipedia.org/wiki/University_of_Missouri%E2%80%93Kansas_City'
p1657
aS'http://en.wikipedia.org/wiki/Bullying_in_academia'
p1658
aS'http://en.wikipedia.org/wiki/Institute_for_International_Research'
p1659
aS'http://en.wikipedia.org/wiki/Knowledge_sharing'
p1660
aS'http://en.wikipedia.org/wiki/University_of_Texas_Performing_Arts_Center'
p1661
aS'http://en.wikipedia.org/wiki/Paul_H._Nitze_School_of_Advanced_International_Studies'
p1662
aS'http://en.wikipedia.org/wiki/DPubS'
p1663
aS'http://en.wikipedia.org/wiki/Center_for_Transportation_Research_UT_Austin'
p1664
aS'http://en.wikipedia.org/wiki/EMO_(trade_show)'
p1665
aS'http://en.wikipedia.org/wiki/Oswego_Movement'
p1666
aS'http://en.wikipedia.org/wiki/Learning_object_metadata'
p1667
aS'http://en.wikipedia.org/wiki/International_Learning_Unit'
p1668
aS'http://en.wikipedia.org/wiki/Institut_Sup%C3%A9rieur_de_Logistique_Industrielle'
p1669
aS'http://en.wikipedia.org/wiki/Thunchath_Ezhuthachan_Malayalam_University'
p1670
aS'http://en.wikipedia.org/wiki/FAQ'
p1671
aS'http://en.wikipedia.org/wiki/Human_services'
p1672
aS'http://en.wikipedia.org/wiki/Guild_of_Mercers%27_Scholars'
p1673
aS'http://en.wikipedia.org/wiki/Berlin_Declaration_on_Open_Access_to_Knowledge_in_the_Sciences_and_Humanities'
p1674
aS'http://en.wikipedia.org/wiki/Rich_Text_Format'
p1675
aS'http://en.wikipedia.org/wiki/Massive_online_open_research'
p1676
aS'http://en.wikipedia.org/wiki/University_of_Texas_of_the_Permian_Basin'
p1677
aS'http://en.wikipedia.org/wiki/Washburn_Institute_of_Technology'
p1678
aS'http://en.wikipedia.org/wiki/University_of_Alaska_System'
p1679
aS'http://en.wikipedia.org/wiki/Biotechcellence'
p1680
aS'http://en.wikipedia.org/wiki/Tamaulipas_Institute_of_Higher_Education'
p1681
aS'http://en.wikipedia.org/wiki/General_College_Truth_Movement'
p1682
aS'http://en.wikipedia.org/wiki/Hislop_College'
p1683
aS'http://en.wikipedia.org/wiki/Scott_Talan'
p1684
aS'http://en.wikipedia.org/wiki/University_of_Santander'
p1685
aS'http://en.wikipedia.org/wiki/University_of_Nevada,_Reno'
p1686
aS'http://en.wikipedia.org/wiki/Richard_Bland_College'
p1687
aS'http://en.wikipedia.org/wiki/University_of_Texas%E2%80%93Rio_Grande_Valley'
p1688
aS'http://en.wikipedia.org/wiki/Ohio_State_University'
p1689
aS'http://en.wikipedia.org/wiki/Iowa_State_University'
p1690
aS'http://en.wikipedia.org/wiki/Scientific_literature'
p1691
aS'http://en.wikipedia.org/wiki/International_Manufacturing_Technology_Show'
p1692
aS'http://en.wikipedia.org/wiki/University_of_Alabama'
p1693
aS'http://en.wikipedia.org/wiki/University_of_Alberta_Students%27_Union'
p1694
aS'http://en.wikipedia.org/wiki/Learning_analytics'
p1695
aS'http://en.wikipedia.org/wiki/Course_reader'
p1696
aS'http://en.wikipedia.org/wiki/MyUniversity-project'
p1697
aS'http://en.wikipedia.org/wiki/Mountain_View_College_(Texas)'
p1698
aS'http://en.wikipedia.org/wiki/Florida_Memorial_University'
p1699
aS'http://en.wikipedia.org/wiki/Frederick_Community_College'
p1700
aS'http://en.wikipedia.org/wiki/History_of_virtual_learning_environments'
p1701
aS'http://en.wikipedia.org/wiki/Wingate_University'
p1702
aS'http://en.wikipedia.org/wiki/Access2Research'
p1703
aS'http://en.wikipedia.org/wiki/Integration_of_faith_and_learning'
p1704
aS'http://en.wikipedia.org/wiki/High_Point_University'
p1705
aS'http://en.wikipedia.org/wiki/East_Central_Community_College'
p1706
aS'http://en.wikipedia.org/wiki/Lee_University'
p1707
aS'http://en.wikipedia.org/wiki/Curtain_Club'
p1708
aS'http://en.wikipedia.org/wiki/Thomas_University'
p1709
aS'http://en.wikipedia.org/wiki/Wytheville_Community_College'
p1710
aS'http://en.wikipedia.org/wiki/Warren_Wilson_College'
p1711
aS'http://en.wikipedia.org/wiki/Academic_rank_in_Finland'
p1712
aS'http://en.wikipedia.org/wiki/El_Colegio_de_M%C3%A9xico'
p1713
aS'http://en.wikipedia.org/wiki/Review_article'
p1714
aS'http://en.wikipedia.org/wiki/Faulkner_University'
p1715
aS'http://en.wikipedia.org/wiki/Conditional_text'
p1716
aS'http://en.wikipedia.org/wiki/Tulane_Corporate_Law_Institute'
p1717
aS'http://en.wikipedia.org/wiki/Acton_School_of_Business'
p1718
aS'http://en.wikipedia.org/wiki/California_State_University,_Fresno'
p1719
aS'http://en.wikipedia.org/wiki/Asbury_Theological_Seminary'
p1720
aS'http://en.wikipedia.org/wiki/Johnson_University'
p1721
aS'http://en.wikipedia.org/wiki/Texas_Tech_University_Health_Sciences_Center_at_El_Paso'
p1722
aS'http://en.wikipedia.org/wiki/Mexican_International_Conference_on_Artificial_Intelligence'
p1723
aS'http://en.wikipedia.org/wiki/California_Institute_of_Technology'
p1724
aS'http://en.wikipedia.org/wiki/University_of_Puerto_Rico'
p1725
aS'http://en.wikipedia.org/wiki/Autonomous_University_of_Baja_California'
p1726
aS'http://en.wikipedia.org/wiki/Mother_Teresa_School,_Raebareli'
p1727
aS'http://en.wikipedia.org/wiki/EuRuKo'
p1728
aS'http://en.wikipedia.org/wiki/J._Sargeant_Reynolds_Community_College'
p1729
aS'http://en.wikipedia.org/wiki/Technoculture'
p1730
aS'http://en.wikipedia.org/wiki/Jackson_State_Community_College'
p1731
aS'http://en.wikipedia.org/wiki/Parallel_college'
p1732
aS'http://en.wikipedia.org/wiki/Report'
p1733
aS'http://en.wikipedia.org/wiki/Cork_School_of_Architecture'
p1734
aS'http://en.wikipedia.org/wiki/Georgia_Southern_University'
p1735
aS'http://en.wikipedia.org/wiki/West_Virginia_University'
p1736
aS'http://en.wikipedia.org/wiki/Technical_documentation'
p1737
aS'http://en.wikipedia.org/wiki/Study_abroad_in_the_United_States'
p1738
aS'http://en.wikipedia.org/wiki/Distinguo'
p1739
aS'http://en.wikipedia.org/wiki/North_Carolina_Central_University'
p1740
aS'http://en.wikipedia.org/wiki/Philology'
p1741
aS'http://en.wikipedia.org/wiki/Space_Moose'
p1742
aS'http://en.wikipedia.org/wiki/Byzantine_university'
p1743
aS'http://en.wikipedia.org/wiki/AuthorAID'
p1744
aS'http://en.wikipedia.org/wiki/Virtual_Student_Foreign_Service'
p1745
aS'http://en.wikipedia.org/wiki/University_of_Alberta_School_of_Business'
p1746
aS'http://en.wikipedia.org/wiki/Virginia_Highlands_Community_College'
p1747
aS'http://en.wikipedia.org/wiki/University_of_Valencia'
p1748
aS'http://en.wikipedia.org/wiki/Global_education'
p1749
aS'http://en.wikipedia.org/wiki/University_of_North_Carolina_at_Asheville'
p1750
aS'http://en.wikipedia.org/wiki/BioOne'
p1751
aS'http://en.wikipedia.org/wiki/Monumenta_Germaniae_Historica'
p1752
aS'http://en.wikipedia.org/wiki/Indiana_University_of_Pennsylvania'
p1753
aS'http://en.wikipedia.org/wiki/Technical_definition'
p1754
aS'http://en.wikipedia.org/wiki/University_college_(Scandinavia)'
p1755
aS'http://en.wikipedia.org/wiki/Intellectual'
p1756
aS'http://en.wikipedia.org/wiki/Regent_University'
p1757
aS'http://en.wikipedia.org/wiki/Randolph_College'
p1758
aS'http://en.wikipedia.org/wiki/CS50'
p1759
aS'http://en.wikipedia.org/wiki/Texas_Tech_University_Health_Sciences_Center'
p1760
aS'http://en.wikipedia.org/wiki/Architectural_Analytics'
p1761
aS'http://en.wikipedia.org/wiki/Virginia_Commonwealth_University'
p1762
aS'http://en.wikipedia.org/wiki/Universidad_Tecnol%C3%B3gica_de_M%C3%A9xico'
p1763
aS'http://en.wikipedia.org/wiki/EC_English_Language_Schools'
p1764
aS'http://en.wikipedia.org/wiki/Usability'
p1765
aS'http://en.wikipedia.org/wiki/Economic_history'
p1766
aS'http://en.wikipedia.org/wiki/South_University_Savannah'
p1767
aS'http://en.wikipedia.org/wiki/The_Paramount_Theatre_(Austin,_Texas)'
p1768
aS'http://en.wikipedia.org/wiki/Mapic'
p1769
aS'http://en.wikipedia.org/wiki/Comparative_education'
p1770
aS'http://en.wikipedia.org/wiki/Ghetto_benches'
p1771
aS'http://en.wikipedia.org/wiki/University_of_Texas_at_El_Paso'
p1772
aS'http://en.wikipedia.org/wiki/Arkansas_State_University'
p1773
aS'http://en.wikipedia.org/wiki/West_Kentucky_Community_and_Technical_College'
p1774
aS'http://en.wikipedia.org/wiki/University_of_Wisconsin_System'
p1775
aS'http://en.wikipedia.org/wiki/Emory_University'
p1776
aS'http://en.wikipedia.org/wiki/VLB_Berlin'
p1777
aS'http://en.wikipedia.org/wiki/Academic_bias'
p1778
aS'http://en.wikipedia.org/wiki/Alternative_pathways_in_education'
p1779
aS'http://en.wikipedia.org/wiki/Mount_Royal_University'
p1780
aS'http://en.wikipedia.org/wiki/Francis_Marion_University'
p1781
aS'http://en.wikipedia.org/wiki/Studies_of_Waldorf_education'
p1782
aS'http://en.wikipedia.org/wiki/ISSRE'
p1783
aS'http://en.wikipedia.org/wiki/Hazard_Community_and_Technical_College'
p1784
aS'http://en.wikipedia.org/wiki/Simplified_Technical_English'
p1785
aS'http://en.wikipedia.org/wiki/International_Seapower_Symposium'
p1786
aS'http://en.wikipedia.org/wiki/Numerus_clausus'
p1787
aS'http://en.wikipedia.org/wiki/Southern_Polytechnic_State_University'
p1788
aS'http://en.wikipedia.org/wiki/Alabama_State_University'
p1789
aS'http://en.wikipedia.org/wiki/Hepcats'
p1790
aS'http://en.wikipedia.org/wiki/Procedure_(term)'
p1791
aS'http://en.wikipedia.org/wiki/Expeditionary_learning_schools'
p1792
aS'http://en.wikipedia.org/wiki/Jacksonville_University'
p1793
aS'http://en.wikipedia.org/wiki/Course_numbering_in_North_America'
p1794
aS'http://en.wikipedia.org/wiki/Parameter_Value_Language'
p1795
aS'http://en.wikipedia.org/wiki/Alamance_Community_College'
p1796
aS'http://en.wikipedia.org/wiki/American_InterContinental_University'
p1797
aS'http://en.wikipedia.org/wiki/University_of_Mary_Washington'
p1798
aS'http://en.wikipedia.org/wiki/Wesleyan_College'
p1799
aS'http://en.wikipedia.org/wiki/College_of_Central_Florida'
p1800
aS'http://en.wikipedia.org/wiki/Academic_publishing_in_China'
p1801
aS'http://en.wikipedia.org/wiki/University_of_Kerala'
p1802
aS'http://en.wikipedia.org/wiki/Union_University'
p1803
aS'http://en.wikipedia.org/wiki/Alice_Lloyd_College'
p1804
aS'http://en.wikipedia.org/wiki/Affirmative_action'
p1805
aS'http://en.wikipedia.org/wiki/Teaching_and_learning_center'
p1806
aS'http://en.wikipedia.org/wiki/University_of_Mississippi_Medical_Center'
p1807
aS'http://en.wikipedia.org/wiki/University_of_Pikeville'
p1808
aS'http://en.wikipedia.org/wiki/Jewish_quota'
p1809
aS'http://en.wikipedia.org/wiki/Thesis_circle'
p1810
aS'http://en.wikipedia.org/wiki/Mountain_Empire_Community_College'
p1811
aS'http://en.wikipedia.org/wiki/Autonomous_University_of_Chihuahua'
p1812
aS'http://en.wikipedia.org/wiki/University_of_Vermont'
p1813
aS'http://en.wikipedia.org/wiki/Technical_translation'
p1814
aS'http://en.wikipedia.org/wiki/University_of_Manitoba'
p1815
aS'http://en.wikipedia.org/wiki/Higher_Attestation_Commission'
p1816
aS'http://en.wikipedia.org/wiki/Learning_community'
p1817
aS'http://en.wikipedia.org/wiki/East_Carolina_University'
p1818
aS'http://en.wikipedia.org/wiki/Wind_River_Tribal_College'
p1819
aS'http://en.wikipedia.org/wiki/Studium_generale'
p1820
aS'http://en.wikipedia.org/wiki/Pellissippi_State_Community_College'
p1821
aS'http://en.wikipedia.org/wiki/Fran%C3%A7ais_fondamental'
p1822
aS'http://en.wikipedia.org/wiki/International_education'
p1823
aS'http://en.wikipedia.org/wiki/Oral_exam'
p1824
aS'http://en.wikipedia.org/wiki/South_Florida_State_College'
p1825
aS'http://en.wikipedia.org/wiki/University_of_Quintana_Roo'
p1826
aS'http://en.wikipedia.org/wiki/Three_Minute_Thesis'
p1827
aS'http://en.wikipedia.org/wiki/University_of_Missouri%E2%80%93St._Louis'
p1828
aS'http://en.wikipedia.org/wiki/Community_College_of_Vermont'
p1829
aS'http://en.wikipedia.org/wiki/MApEC'
p1830
aS'http://en.wikipedia.org/wiki/International_Economic_Forum'
p1831
aS'http://en.wikipedia.org/wiki/User_analysis'
p1832
aS'http://en.wikipedia.org/wiki/Loyola_University_New_Orleans'
p1833
aS'http://en.wikipedia.org/wiki/Industrial_Economics_Institute'
p1834
aS'http://en.wikipedia.org/wiki/Fisk_University'
p1835
aS'http://en.wikipedia.org/wiki/University_of_Alberta_Faculty_of_Engineering'
p1836
aS'http://en.wikipedia.org/wiki/Government_College_of_Commerce_%26_Economics'
p1837
aS'http://en.wikipedia.org/wiki/Biblioth%C3%A8que_des_Ecoles_fran%C3%A7aises_d%27Ath%C3%A8nes_et_de_Rome'
p1838
aS'http://en.wikipedia.org/wiki/Ave_Maria_University'
p1839
aS'http://en.wikipedia.org/wiki/Oglethorpe_University'
p1840
aS'http://en.wikipedia.org/wiki/University_of_Tennessee_at_Martin'
p1841
aS'http://en.wikipedia.org/wiki/Danville_Community_College'
p1842
aS'http://en.wikipedia.org/wiki/San_Jacinto_College'
p1843
aS'http://en.wikipedia.org/wiki/Transcendental_Meditation_in_education'
p1844
aS'http://en.wikipedia.org/wiki/Wolfenb%C3%BCttel_Ritter-Akademie'
p1845
aS'http://en.wikipedia.org/wiki/Mississippi_University_for_Women'
p1846
aS'http://en.wikipedia.org/wiki/Project_Euclid'
p1847
aS'http://en.wikipedia.org/wiki/Kindergarten'
p1848
aS'http://en.wikipedia.org/wiki/Hidden_curriculum'
p1849
aS'http://en.wikipedia.org/wiki/Discovery_School,_Tegucigalpa'
p1850
aS'http://en.wikipedia.org/wiki/Chief_information_officer_(higher_education)'
p1851
aS'http://en.wikipedia.org/wiki/Austin_Presbyterian_Theological_Seminary'
p1852
aS'http://en.wikipedia.org/wiki/Graduate_Institute_of_Applied_Linguistics'
p1853
aS'http://en.wikipedia.org/wiki/Financial_Literacy_Curriculum'
p1854
aS'http://en.wikipedia.org/wiki/Block_scheduling'
p1855
aS'http://en.wikipedia.org/wiki/Critical_consciousness'
p1856
aS'http://en.wikipedia.org/wiki/Baptist_College_of_Florida'
p1857
aS'http://en.wikipedia.org/wiki/Social_savings'
p1858
aS'http://en.wikipedia.org/wiki/Microsoft_Student_Partners'
p1859
aS'http://en.wikipedia.org/wiki/Quest_Learning_and_Assessment'
p1860
aS'http://en.wikipedia.org/wiki/Louisburg_College'
p1861
aS'http://en.wikipedia.org/wiki/Emmanuel_Christian_Seminary'
p1862
aS'http://en.wikipedia.org/wiki/Kerala_University_of_Fisheries_and_Ocean_Studies'
p1863
aS'http://en.wikipedia.org/wiki/Midwestern_State_University'
p1864
aS'http://en.wikipedia.org/wiki/University_of_Tennessee_at_Chattanooga'
p1865
aS'http://en.wikipedia.org/wiki/Lifewide_education'
p1866
aS'http://en.wikipedia.org/wiki/Catholic_university'
p1867
aS'http://en.wikipedia.org/wiki/Commission_for_University_Education'
p1868
aS'http://en.wikipedia.org/wiki/St._Patrick%27s_Academy'
p1869
aS'http://en.wikipedia.org/wiki/Small_Learning_Community'
p1870
aS'http://en.wikipedia.org/wiki/Universidad_Aut%C3%B3noma_de_San_Luis_Potos%C3%AD'
p1871
aS'http://en.wikipedia.org/wiki/James_Madison_University'
p1872
aS'http://en.wikipedia.org/wiki/Wooden_O_Symposium'
p1873
aS'http://en.wikipedia.org/wiki/Standard_Generalized_Markup_Language'
p1874
aS'http://en.wikipedia.org/wiki/Pearl_River_Community_College'
p1875
aS'http://en.wikipedia.org/wiki/Talal_Abu-Ghazaleh_University_(TAGI-UNI)'
p1876
aS'http://en.wikipedia.org/wiki/Asbury_University'
p1877
aS'http://en.wikipedia.org/wiki/York_Technical_College'
p1878
aS'http://en.wikipedia.org/wiki/Inca_education'
p1879
aS'http://en.wikipedia.org/wiki/Data_paper'
p1880
aS'http://en.wikipedia.org/wiki/Society_for_Advancing_Philosophical_Enquiry_and_Reflection_in_Education'
p1881
aS'http://en.wikipedia.org/wiki/Nutan_Marathi_Vidyalaya'
p1882
aS'http://en.wikipedia.org/wiki/Bulletin_board'
p1883
aS'http://en.wikipedia.org/wiki/Capstone_course'
p1884
aS'http://en.wikipedia.org/wiki/Gadsden_State_Community_College'
p1885
aS'http://en.wikipedia.org/wiki/Gel_conference'
p1886
aS'http://en.wikipedia.org/wiki/Kidification'
p1887
aS'http://en.wikipedia.org/wiki/Committee_on_Publication_Ethics'
p1888
aS'http://en.wikipedia.org/wiki/Outcome-based_education'
p1889
aS'http://en.wikipedia.org/wiki/Clearwater_Christian_College'
p1890
aS'http://en.wikipedia.org/wiki/Louisiana_State_University_System'
p1891
aS'http://en.wikipedia.org/wiki/University_of_Michigan'
p1892
aS'http://en.wikipedia.org/wiki/Information_architecture'
p1893
aS'http://en.wikipedia.org/wiki/Nested_Context_Language'
p1894
aS'http://en.wikipedia.org/wiki/Marine_Corps_University'
p1895
aS'http://en.wikipedia.org/wiki/Mid-Atlantic_Christian_University'
p1896
aS'http://en.wikipedia.org/wiki/Huntingdon_College'
p1897
aS'http://en.wikipedia.org/wiki/Commencement_at_Central_Connecticut_State_University'
p1898
aS'http://en.wikipedia.org/wiki/Virginia_State_University'
p1899
aS'http://en.wikipedia.org/wiki/Roane_State_Community_College'
p1900
aS'http://en.wikipedia.org/wiki/Education_reform'
p1901
aS'http://en.wikipedia.org/wiki/University_of_Alberta_Faculty_of_Arts'
p1902
aS'http://en.wikipedia.org/wiki/Seventh_Edition_Unix_terminal_interface'
p1903
aS'http://en.wikipedia.org/wiki/Tulane_University'
p1904
aS'http://en.wikipedia.org/wiki/Christian_Brothers_University'
p1905
aS'http://en.wikipedia.org/wiki/Victory_University'
p1906
aS'http://en.wikipedia.org/wiki/Classification_of_Academic_Degrees'
p1907
aS'http://en.wikipedia.org/wiki/Environmental_science'
p1908
aS'http://en.wikipedia.org/wiki/Emory_and_Henry_College'
p1909
aS'http://en.wikipedia.org/wiki/Data_steward'
p1910
aS'http://en.wikipedia.org/wiki/Summit_Series_(conference)'
p1911
aS'http://en.wikipedia.org/wiki/UTSL'
p1912
aS'http://en.wikipedia.org/wiki/Harvard_Model_Congress'
p1913
aS'http://en.wikipedia.org/wiki/Southern_Illinois_University_Carbondale'
p1914
aS'http://en.wikipedia.org/wiki/Lady_Bird_Johnson_Wildflower_Center'
p1915
aS'http://en.wikipedia.org/wiki/University_of_Alberta_Faculty_of_Extension'
p1916
aS'http://en.wikipedia.org/wiki/Course_atlas'
p1917
aS'http://en.wikipedia.org/wiki/Transliteracy'
p1918
aS'http://en.wikipedia.org/wiki/The_Council_of_Editors_of_Learned_Journals'
p1919
aS'http://en.wikipedia.org/wiki/Doctoral_advisor'
p1920
aS'http://en.wikipedia.org/wiki/Prairie_View_A%26M_University'
p1921
aS'http://en.wikipedia.org/wiki/Andragogy'
p1922
aS'http://en.wikipedia.org/wiki/Cardiff_University'
p1923
aS'http://en.wikipedia.org/wiki/Talloires_Declaration_on_the_Civic_Roles_and_Social_Responsibilities_of_Higher_Education'
p1924
aS'http://en.wikipedia.org/wiki/Tallahassee_Female_Academy'
p1925
aS'http://en.wikipedia.org/wiki/Edmund_A._Walsh_School_of_Foreign_Service'
p1926
aS'http://en.wikipedia.org/wiki/Hodges_University'
p1927
aS'http://en.wikipedia.org/wiki/Association_of_Scientists,_Developers_and_Faculties'
p1928
aS'http://en.wikipedia.org/wiki/National_curriculum'
p1929
aS'http://en.wikipedia.org/wiki/University_of_Southern_Mississippi'
p1930
aS'http://en.wikipedia.org/wiki/Clinical_Physiology'
p1931
aS'http://en.wikipedia.org/wiki/Claflin_University'
p1932
aS'http://en.wikipedia.org/wiki/White_paper'
p1933
aS'http://en.wikipedia.org/wiki/Louisiana_State_University_at_Eunice'
p1934
aS'http://en.wikipedia.org/wiki/Saint_Joseph_Seminary_College'
p1935
aS'http://en.wikipedia.org/wiki/Daytona_State_College'
p1936
aS'http://en.wikipedia.org/wiki/Bullying_in_teaching'
p1937
aS'http://en.wikipedia.org/wiki/Publication_bias'
p1938
aS'http://en.wikipedia.org/wiki/Gwinnett_Technical_College'
p1939
aS'http://en.wikipedia.org/wiki/Virtual_university'
p1940
aS'http://en.wikipedia.org/wiki/University_of_Alberta_Faculty_of_Pharmacy_and_Pharmaceutical_Sciences'
p1941
aS'http://en.wikipedia.org/wiki/Vanderbilt_University'
p1942
aS'http://en.wikipedia.org/wiki/%C3%89cole_publique_Gabrielle-Roy'
p1943
aS'http://en.wikipedia.org/wiki/IMRAD'
p1944
aS'http://en.wikipedia.org/wiki/Kutztown_University_of_Pennsylvania'
p1945
aS'http://en.wikipedia.org/wiki/Deep_Eddy_Pool'
p1946
aS'http://en.wikipedia.org/wiki/IAR_Graduate_Conference'
p1947
aS'http://en.wikipedia.org/wiki/The_Fund_for_American_Studies'
p1948
aS'http://en.wikipedia.org/wiki/Learning_system_agreement'
p1949
aS'http://en.wikipedia.org/wiki/Law_school'
p1950
aS'http://en.wikipedia.org/wiki/The_College_of_Saints_John_Fisher_%26_Thomas_More'
p1951
aS'http://en.wikipedia.org/wiki/Sewanee:_The_University_of_the_South'
p1952
aS'http://en.wikipedia.org/wiki/West_Coast_Conference_on_Formal_Linguistics'
p1953
aS'http://en.wikipedia.org/wiki/Crowder_College'
p1954
aS'http://en.wikipedia.org/wiki/Montesquieu_University_%E2%80%93_Bordeaux_IV'
p1955
aS'http://en.wikipedia.org/wiki/Indiana_University_East'
p1956
aS'http://en.wikipedia.org/wiki/Vernon_College'
p1957
aS'http://en.wikipedia.org/wiki/Dresden_University_of_Technology'
p1958
aS'http://en.wikipedia.org/wiki/ISO/IEC_19788'
p1959
aS'http://en.wikipedia.org/wiki/Arthouse_at_The_Jones_Center'
p1960
aS'http://en.wikipedia.org/wiki/Oklahoma_State_University_System'
p1961
aS'http://en.wikipedia.org/wiki/Virginia_Intermont_College'
p1962
aS'http://en.wikipedia.org/wiki/University_museum'
p1963
aS'http://en.wikipedia.org/wiki/University_of_Castilla%E2%80%93La_Mancha'
p1964
aS'http://en.wikipedia.org/wiki/All_European_Academies'
p1965
aS'http://en.wikipedia.org/wiki/Texas_Lutheran_University'
p1966
aS'http://en.wikipedia.org/wiki/Sul_Ross_State_University'
p1967
aS'http://en.wikipedia.org/wiki/Rethinking_Religion_in_India'
p1968
aS'http://en.wikipedia.org/wiki/Delgado_Community_College'
p1969
aS'http://en.wikipedia.org/wiki/Tui_(intellectual)'
p1970
aS'http://en.wikipedia.org/wiki/University_of_Texas_Health_Science_Center_at_Houston'
p1971
aS'http://en.wikipedia.org/wiki/Service_provider_interface'
p1972
aS'http://en.wikipedia.org/wiki/National_American_University'
p1973
aS'http://en.wikipedia.org/wiki/Future_workshop'
p1974
aS'http://en.wikipedia.org/wiki/Ringling_College_of_Art_and_Design'
p1975
aS'http://en.wikipedia.org/wiki/Canadian_Circumpolar_Collection'
p1976
aS'http://en.wikipedia.org/wiki/University_of_West_Florida'
p1977
aS'http://en.wikipedia.org/wiki/University_of_Cantabria'
p1978
aS'http://en.wikipedia.org/wiki/Moscow_Student_Conference_on_Linguistics'
p1979
aS'http://en.wikipedia.org/wiki/Technische_Hochschule'
p1980
aS'http://en.wikipedia.org/wiki/Technothlon'
p1981
aS'http://en.wikipedia.org/wiki/International_Conference_on_Bisexuality'
p1982
aS'http://en.wikipedia.org/wiki/University_of_Hawaii'
p1983
aS'http://en.wikipedia.org/wiki/Florida_State_University_Panama_City'
p1984
aS'http://en.wikipedia.org/wiki/Atlantic_University_College'
p1985
aS'http://en.wikipedia.org/wiki/Social_learning_(social_pedagogy)'
p1986
aS'http://en.wikipedia.org/wiki/Docsity'
p1987
aS'http://en.wikipedia.org/wiki/First_day_of_school'
p1988
aS'http://en.wikipedia.org/wiki/NCL_Eclipse'
p1989
aS'http://en.wikipedia.org/wiki/Men%27s_colleges'
p1990
aS'http://en.wikipedia.org/wiki/Shaw_University'
p1991
aS'http://en.wikipedia.org/wiki/New_Brunswick_Community_College'
p1992
aS'http://en.wikipedia.org/wiki/University_of_South_Carolina_Aiken'
p1993
aS'http://en.wikipedia.org/wiki/University_of_Alberta_Press'
p1994
aS'http://en.wikipedia.org/wiki/Scout_method'
p1995
aS'http://en.wikipedia.org/wiki/High_school'
p1996
aS'http://en.wikipedia.org/wiki/Review_journal'
p1997
aS'http://en.wikipedia.org/wiki/Primary_research'
p1998
aS'http://en.wikipedia.org/wiki/International_Association_for_Military_Pedagogy'
p1999
aS'http://en.wikipedia.org/wiki/Educational_perennialism'
p2000
aS'http://en.wikipedia.org/wiki/Help_(command)'
p2001
aS'http://en.wikipedia.org/wiki/Preschool'
p2002
aS'http://en.wikipedia.org/wiki/Australasian_Legal_Information_Institute'
p2003
aS'http://en.wikipedia.org/wiki/State_of_Play_(conference_series)'
p2004
aS'http://en.wikipedia.org/wiki/Cleveland_State_University'
p2005
aS'http://en.wikipedia.org/wiki/Cedar_Valley_College'
p2006
aS'http://en.wikipedia.org/wiki/Public_health_journal'
p2007
aS'http://en.wikipedia.org/wiki/Academic_administration'
p2008
aS'http://en.wikipedia.org/wiki/Imperial_College_London'
p2009
aS'http://en.wikipedia.org/wiki/Wilson_Community_College'
p2010
aS'http://en.wikipedia.org/wiki/Problem_set'
p2011
aS'http://en.wikipedia.org/wiki/European_Professional_Biologist'
p2012
aS'http://en.wikipedia.org/wiki/European_Society_for_Engineering_Education'
p2013
aS'http://en.wikipedia.org/wiki/Texas_A%26M_University%E2%80%93Central_Texas'
p2014
aS'http://en.wikipedia.org/wiki/Global_Open_Water_Swimming_Conference'
p2015
aS'http://en.wikipedia.org/wiki/Moorhead_High_School'
p2016
aS'http://en.wikipedia.org/wiki/Austin_Community_College_District'
p2017
aS'http://en.wikipedia.org/wiki/Woman%27s_Medical_College_of_St._Louis'
p2018
aS'http://en.wikipedia.org/wiki/Games,_Learning_%26_Society_Conference'
p2019
aS'http://en.wikipedia.org/wiki/Pfeiffer_University'
p2020
aS'http://en.wikipedia.org/wiki/Electronic_article'
p2021
aS'http://en.wikipedia.org/wiki/Honor_code'
p2022
aS'http://en.wikipedia.org/wiki/University_of_Bergen'
p2023
aS'http://en.wikipedia.org/wiki/Frankfurt_University_of_Music_and_Performing_Arts'
p2024
aS'http://en.wikipedia.org/wiki/Parentocracy'
p2025
aS'http://en.wikipedia.org/wiki/Superhighway_Summit'
p2026
aS'http://en.wikipedia.org/wiki/EURASHE'
p2027
aS'http://en.wikipedia.org/wiki/Southern_University_at_Shreveport'
p2028
aS'http://en.wikipedia.org/wiki/Christendom_College'
p2029
aS'http://en.wikipedia.org/wiki/Wiley_College'
p2030
aS'http://en.wikipedia.org/wiki/Southern_Methodist_University'
p2031
aS'http://en.wikipedia.org/wiki/Henderson_Community_College'
p2032
aS'http://en.wikipedia.org/wiki/Willamette_University_College_of_Law'
p2033
aS'http://en.wikipedia.org/wiki/European_University_Foundations'
p2034
aS'http://en.wikipedia.org/wiki/Texas_Hillel'
p2035
aS'http://en.wikipedia.org/wiki/North_Central_Texas_College'
p2036
aS'http://en.wikipedia.org/wiki/Life-wide_Learning'
p2037
aS'http://en.wikipedia.org/wiki/Institute_for_the_Psychological_Sciences'
p2038
aS'http://en.wikipedia.org/wiki/Social_science'
p2039
aS'http://en.wikipedia.org/wiki/World_Media_Economics_and_Management_Conference'
p2040
aS'http://en.wikipedia.org/wiki/Northwest_Florida_State_College'
p2041
aS'http://en.wikipedia.org/wiki/Mid-America_Baptist_Theological_Seminary'
p2042
aS'http://en.wikipedia.org/wiki/Carteret_Community_College'
p2043
aS'http://en.wikipedia.org/wiki/Textbook_Excellence_Award_(%22Texty%22)'
p2044
aS'http://en.wikipedia.org/wiki/Melodic_learning'
p2045
aS'http://en.wikipedia.org/wiki/Rubric_(academic)'
p2046
aS'http://en.wikipedia.org/wiki/University'
p2047
aS'http://en.wikipedia.org/wiki/Topic_Maps'
p2048
aS'http://en.wikipedia.org/wiki/The_Democratic_Intellect'
p2049
aS'http://en.wikipedia.org/wiki/Southern_Adventist_University'
p2050
aS'http://en.wikipedia.org/wiki/Egalia'
p2051
aS'http://en.wikipedia.org/wiki/Southeastern_Baptist_Theological_Seminary'
p2052
aS'http://en.wikipedia.org/wiki/National_Council_on_Bible_Curriculum_in_Public_Schools'
p2053
aS'http://en.wikipedia.org/wiki/Austin_College'
p2054
aS'http://en.wikipedia.org/wiki/University_of_Texas_at_Austin_College_of_Liberal_Arts'
p2055
aS'http://en.wikipedia.org/wiki/Theory_of_multiple_intelligences'
p2056
aS'http://en.wikipedia.org/wiki/Yale_Model_Government_Europe'
p2057
aS'http://en.wikipedia.org/wiki/International_Conference_on_the_Unity_of_the_Sciences'
p2058
aS'http://en.wikipedia.org/wiki/Etiwanda_School_District'
p2059
aS'http://en.wikipedia.org/wiki/Land_Art_Mongolia'
p2060
aS'http://en.wikipedia.org/wiki/Greenville_Technical_College'
p2061
aS'http://en.wikipedia.org/wiki/ATypI'
p2062
aS'http://en.wikipedia.org/wiki/Enterprise_State_Community_College'
p2063
aS'http://en.wikipedia.org/wiki/Southwestern_Assemblies_of_God_University'
p2064
aS'http://en.wikipedia.org/wiki/Differential_Education_Achievement'
p2065
aS'http://en.wikipedia.org/wiki/University_of_the_Incarnate_Word'
p2066
aS'http://en.wikipedia.org/wiki/University_of_Louisiana_at_Monroe'
p2067
aS'http://en.wikipedia.org/wiki/Military_junior_college'
p2068
aS'http://en.wikipedia.org/wiki/Speed_geeking'
p2069
aS'http://en.wikipedia.org/wiki/Virtual_learning_environment'
p2070
aS'http://en.wikipedia.org/wiki/Aviation_Industry_Computer-Based_Training_Committee'
p2071
aS'http://en.wikipedia.org/wiki/Center_for_Community_College_Student_Engagement'
p2072
aS'http://en.wikipedia.org/wiki/Tri-County_Technical_College'
p2073
aS'http://en.wikipedia.org/wiki/Spatial_intelligence_(psychology)'
p2074
aS'http://en.wikipedia.org/wiki/Settlement_school'
p2075
aS'http://en.wikipedia.org/wiki/World_Forum_for_Democratization_in_Asia'
p2076
aS'http://en.wikipedia.org/wiki/Marshal_(university)'
p2077
aS'http://en.wikipedia.org/wiki/Distributed_Oceanographic_Data_Systems'
p2078
aS'http://en.wikipedia.org/wiki/Backward_design'
p2079
aS'http://en.wikipedia.org/wiki/Distance_education'
p2080
aS'http://en.wikipedia.org/wiki/Limestone_College'
p2081
aS'http://en.wikipedia.org/wiki/Southwest_Tennessee_Community_College'
p2082
aS'http://en.wikipedia.org/wiki/Excellence_Without_a_Soul'
p2083
aS'http://en.wikipedia.org/wiki/Middle_Georgia_Technical_College'
p2084
aS'http://en.wikipedia.org/wiki/AMPEI'
p2085
aS'http://en.wikipedia.org/wiki/Academics_and_Royals'
p2086
aS'http://en.wikipedia.org/wiki/Poster_session'
p2087
aS'http://en.wikipedia.org/wiki/South_Georgia_College'
p2088
aS'http://en.wikipedia.org/wiki/Open_Access_Week'
p2089
aS'http://en.wikipedia.org/wiki/St._Joseph%27s_College,_Edmonton'
p2090
aS'http://en.wikipedia.org/wiki/Louisiana_State_University_in_Shreveport'
p2091
aS'http://en.wikipedia.org/wiki/Auctores_octo_morales'
p2092
aS'http://en.wikipedia.org/wiki/Infovision'
p2093
aS'http://en.wikipedia.org/wiki/Australian_Curriculum'
p2094
aS'http://en.wikipedia.org/wiki/Appalachian_State_University'
p2095
aS'http://en.wikipedia.org/wiki/Virginia_Western_Community_College'
p2096
aS'http://en.wikipedia.org/wiki/Missouri_University_of_Science_and_Technology'
p2097
aS'http://en.wikipedia.org/wiki/International_Conference_on_Acoustics,_Speech,_and_Signal_Processing'
p2098
aS'http://en.wikipedia.org/wiki/Frontier_Nursing_University'
p2099
aS'http://en.wikipedia.org/wiki/Skeptic%27s_Toolbox'
p2100
aS'http://en.wikipedia.org/wiki/Education_Index'
p2101
aS'http://en.wikipedia.org/wiki/Yale_Model_Congress'
p2102
aS'http://en.wikipedia.org/wiki/Population_Research_Laboratory'
p2103
aS'http://en.wikipedia.org/wiki/CSCOPE_(education)'
p2104
aS'http://en.wikipedia.org/wiki/College_of_The_Albemarle'
p2105
aS'http://en.wikipedia.org/wiki/Deaf_education'
p2106
aS'http://en.wikipedia.org/wiki/North_Carolina_Wesleyan_College'
p2107
aS'http://en.wikipedia.org/wiki/University_of_California,_Santa_Barbara'
p2108
aS'http://en.wikipedia.org/wiki/Southeastern_Louisiana_University'
p2109
aS'http://en.wikipedia.org/wiki/Georgia_Institute_of_Technology'
p2110
aS'http://en.wikipedia.org/wiki/Educational_essentialism'
p2111
aS'http://en.wikipedia.org/wiki/Trinity_University_(Texas)'
p2112
aS'http://en.wikipedia.org/wiki/International_Conference_on_Intelligent_Text_Processing_and_Computational_Linguistics'
p2113
aS'http://en.wikipedia.org/wiki/Michaelis_School_of_Fine_Art'
p2114
aS'http://en.wikipedia.org/wiki/St_Joseph%27s_College,_Upholland'
p2115
aS'http://en.wikipedia.org/wiki/Campus_police'
p2116
aS'http://en.wikipedia.org/wiki/Universidad_del_Norte,_Colombia'
p2117
aS'http://en.wikipedia.org/wiki/Kod%C3%A1ly_Method'
p2118
aS'http://en.wikipedia.org/wiki/Sidwell_Friends_School'
p2119
aS'http://en.wikipedia.org/wiki/Ringgold_identifier'
p2120
aS'http://en.wikipedia.org/wiki/Belmont_Abbey_College'
p2121
aS'http://en.wikipedia.org/wiki/Langston_University'
p2122
aS'http://en.wikipedia.org/wiki/Central_Michigan_University'
p2123
aS'http://en.wikipedia.org/wiki/Martin_Methodist_College'
p2124
aS'http://en.wikipedia.org/wiki/Berlin_Model'
p2125
aS'http://en.wikipedia.org/wiki/Hook_%27em_Horns'
p2126
aS'http://en.wikipedia.org/wiki/Structured_writing'
p2127
aS'http://en.wikipedia.org/wiki/Tarrant_County_College'
p2128
aS'http://en.wikipedia.org/wiki/Course_(education)'
p2129
aS'http://en.wikipedia.org/wiki/Santa_Fe_College'
p2130
aS'http://en.wikipedia.org/wiki/Paul_L._Foster_School_of_Medicine'
p2131
aS'http://en.wikipedia.org/wiki/Barnard_Castle_School'
p2132
aS'http://en.wikipedia.org/wiki/Knowledge_management_software'
p2133
aS'http://en.wikipedia.org/wiki/Interactive_Futures'
p2134
aS'http://en.wikipedia.org/wiki/European_System_of_Cooperative_Research_Networks_in_Agriculture'
p2135
aS'http://en.wikipedia.org/wiki/Tahrir_Academy'
p2136
aS'http://en.wikipedia.org/wiki/Field_Schools'
p2137
aS'http://en.wikipedia.org/wiki/Segmentation_Rules_eXchange'
p2138
aS'http://en.wikipedia.org/wiki/New_Jersey_Institute_of_Technology'
p2139
aS'http://en.wikipedia.org/wiki/Norfolk_State_University'
p2140
aS'http://en.wikipedia.org/wiki/Aspen_Ideas_Festival'
p2141
aS'http://en.wikipedia.org/wiki/Documentation'
p2142
aS'http://en.wikipedia.org/wiki/Festschrift'
p2143
aS'http://en.wikipedia.org/wiki/Haynes_Manual'
p2144
aS'http://en.wikipedia.org/wiki/Ancient_higher-learning_institutions'
p2145
aS'http://en.wikipedia.org/wiki/Middle_Schools_of_Arlington_County,_Virginia'
p2146
aS'http://en.wikipedia.org/wiki/International_Standard_Classification_of_Education'
p2147
aS'http://en.wikipedia.org/wiki/Texas_Academy_of_Leadership_in_the_Humanities'
p2148
aS'http://en.wikipedia.org/wiki/Catawba_College'
p2149
aS'http://en.wikipedia.org/wiki/Health_promotion_in_higher_education'
p2150
aS'http://en.wikipedia.org/wiki/Vijay_Rural_Engineering_College,Nizamabad'
p2151
aS'http://en.wikipedia.org/wiki/Open_Archives_Initiative'
p2152
aS'http://en.wikipedia.org/wiki/Educational_stage'
p2153
aS'http://en.wikipedia.org/wiki/Kentucky_Wesleyan_College'
p2154
aS'http://en.wikipedia.org/wiki/Data_Quality_Campaign'
p2155
aS'http://en.wikipedia.org/wiki/Northeast_Lakeview_College'
p2156
aS'http://en.wikipedia.org/wiki/Hollins_University'
p2157
aS'http://en.wikipedia.org/wiki/Florida_International_University'
p2158
aS'http://en.wikipedia.org/wiki/EUCEN'
p2159
aS'http://en.wikipedia.org/wiki/Commonwealth_Scholarship_and_Fellowship_Plan'
p2160
aS'http://en.wikipedia.org/wiki/Humanistic_education'
p2161
aS'http://en.wikipedia.org/wiki/Philosophy_of_education'
p2162
aS'http://en.wikipedia.org/wiki/St._Vincent_de_Paul_Regional_Seminary'
p2163
aS'http://en.wikipedia.org/wiki/Generative_Linguistics_in_the_Old_World'
p2164
aS'http://en.wikipedia.org/wiki/Teaching_dossier'
p2165
aS'http://en.wikipedia.org/wiki/Global_Intelligence_Forum'
p2166
aS'http://en.wikipedia.org/wiki/Mid-Continent_University'
p2167
aS'http://en.wikipedia.org/wiki/Types_of_research_methods_and_disciplines'
p2168
aS'http://en.wikipedia.org/wiki/Professional_school'
p2169
aS'http://en.wikipedia.org/wiki/Northern_Marianas_College'
p2170
aS'http://en.wikipedia.org/wiki/Permanent_European_Conference_for_the_Study_of_the_Rural_Landscape'
p2171
aS'http://en.wikipedia.org/wiki/Independent_study'
p2172
aS'http://en.wikipedia.org/wiki/Bible_college'
p2173
aS'http://en.wikipedia.org/wiki/Eckerd_College'
p2174
aS'http://en.wikipedia.org/wiki/Dillard_University'
p2175
aS'http://en.wikipedia.org/wiki/University_of_Arkansas_System'
p2176
aS'http://en.wikipedia.org/wiki/Otto_Struve_Telescope'
p2177
aS'http://en.wikipedia.org/wiki/International_Society_for_Performance_Improvement'
p2178
aS'http://en.wikipedia.org/wiki/Data_custodian'
p2179
aS'http://en.wikipedia.org/wiki/Averett_University'
p2180
aS'http://en.wikipedia.org/wiki/Forum_on_education_abroad'
p2181
aS'http://en.wikipedia.org/wiki/Dallas_County_Community_College_District'
p2182
aS'http://en.wikipedia.org/wiki/Aarhus_University,_School_of_Business_and_Social_Sciences'
p2183
aS'http://en.wikipedia.org/wiki/Rowan%E2%80%93Cabarrus_Community_College'
p2184
aS'http://en.wikipedia.org/wiki/Upper_ontology'
p2185
aS'http://en.wikipedia.org/wiki/Integral_education'
p2186
aS'http://en.wikipedia.org/wiki/J._Dewey_Soper'
p2187
aS'http://en.wikipedia.org/wiki/Stanford_University'
p2188
aS'http://en.wikipedia.org/wiki/University_of_Nebraska_system'
p2189
aS'http://en.wikipedia.org/wiki/Learning_and_skills_in_England'
p2190
aS'http://en.wikipedia.org/wiki/Ranger_College'
p2191
aS'http://en.wikipedia.org/wiki/JSTOR'
p2192
aS'http://en.wikipedia.org/wiki/University_of_Oregon'
p2193
aS'http://en.wikipedia.org/wiki/Washington_State_University'
p2194
aS'http://en.wikipedia.org/wiki/ViXra'
p2195
aS'http://en.wikipedia.org/wiki/Job_shadow'
p2196
aS'http://en.wikipedia.org/wiki/Lon_Morris_College'
p2197
aS'http://en.wikipedia.org/wiki/Abilene_Christian_University'
p2198
aS'http://en.wikipedia.org/wiki/Piedmont_Virginia_Community_College'
p2199
aS'http://en.wikipedia.org/wiki/Ion_Boi%C5%A3eanu'
p2200
aS'http://en.wikipedia.org/wiki/Advanced_postgraduate'
p2201
aS'http://en.wikipedia.org/wiki/Universidad_La_Salle'
p2202
aS'http://en.wikipedia.org/wiki/Holistic_education'
p2203
aS'http://en.wikipedia.org/wiki/EuroNanoForum'
p2204
aS'http://en.wikipedia.org/wiki/Frederick_Mayer'
p2205
aS'http://en.wikipedia.org/wiki/WIAMIS'
p2206
aS'http://en.wikipedia.org/wiki/Delta_Epsilon_Psi'
p2207
aS'http://en.wikipedia.org/wiki/University_of_Hawaii_at_Manoa'
p2208
aS'http://en.wikipedia.org/wiki/Technical_writer'
p2209
aS'http://en.wikipedia.org/wiki/Bennett_College'
p2210
aS'http://en.wikipedia.org/wiki/Specification_(technical_standard)'
p2211
aS'http://en.wikipedia.org/wiki/Coker_College'
p2212
aS'http://en.wikipedia.org/wiki/Oakwood_University'
p2213
aS'http://en.wikipedia.org/wiki/Broward_College'
p2214
aS'http://en.wikipedia.org/wiki/Maturation_and_environmentalism'
p2215
aS'http://en.wikipedia.org/wiki/Ball_State_University'
p2216
aS'http://en.wikipedia.org/wiki/Southern_Virginia_University'
p2217
aS'http://en.wikipedia.org/wiki/Isothermal_Community_College'
p2218
aS'http://en.wikipedia.org/wiki/Georgia_Gwinnett_College'
p2219
aS'http://en.wikipedia.org/wiki/Reference_card'
p2220
aS'http://en.wikipedia.org/wiki/TEDMED'
p2221
aS'http://en.wikipedia.org/wiki/Terra_Informa'
p2222
aS'http://en.wikipedia.org/wiki/Louisiana_Tech_University'
p2223
aS'http://en.wikipedia.org/wiki/Citation_index'
p2224
aS'http://en.wikipedia.org/wiki/University_of_California,_San_Diego'
p2225
aS'http://en.wikipedia.org/wiki/Curtin_College'
p2226
aS'http://en.wikipedia.org/wiki/SXML'
p2227
aS'http://en.wikipedia.org/wiki/Faculties_and_departments_of_the_University_of_Alberta'
p2228
aS'http://en.wikipedia.org/wiki/The_Price_of_Admission'
p2229
aS'http://en.wikipedia.org/wiki/Charles_Lee_(scientist)'
p2230
aS'http://en.wikipedia.org/wiki/Universities_and_higher_education_in_Brazil'
p2231
aS'http://en.wikipedia.org/wiki/Institutional_repository'
p2232
aS'http://en.wikipedia.org/wiki/School_of_Fine_Arts'
p2233
aS'http://en.wikipedia.org/wiki/University_of_Regina'
p2234
aS'http://en.wikipedia.org/wiki/Content_management'
p2235
aS'http://en.wikipedia.org/wiki/City_Year'
p2236
aS'http://en.wikipedia.org/wiki/Higher_education_policy'
p2237
aS'http://en.wikipedia.org/wiki/Austin_Convention_Center'
p2238
aS'http://en.wikipedia.org/wiki/Technical_communication'
p2239
aS'http://en.wikipedia.org/wiki/School_branding'
p2240
aS'http://en.wikipedia.org/wiki/Itawamba_Community_College'
p2241
aS'http://en.wikipedia.org/wiki/Austin_Graduate_School_of_Theology'
p2242
aS'http://en.wikipedia.org/wiki/North_Dakota_State_University'
p2243
aS'http://en.wikipedia.org/wiki/Abstract_management'
p2244
aS'http://en.wikipedia.org/wiki/University_of_South_Alabama'
p2245
aS'http://en.wikipedia.org/wiki/Career_Clusters'
p2246
aS'http://en.wikipedia.org/wiki/Publish_or_perish'
p2247
aS'http://en.wikipedia.org/wiki/G-index'
p2248
aS'http://en.wikipedia.org/wiki/Form_and_document_creation'
p2249
aS'http://en.wikipedia.org/wiki/Neo-Adlerian'
p2250
aS'http://en.wikipedia.org/wiki/Portland_State_University'
p2251
aS'http://en.wikipedia.org/wiki/Vocational_university'
p2252
aS'http://en.wikipedia.org/wiki/Alternative_assessment'
p2253
aS'http://en.wikipedia.org/wiki/Journal_ranking'
p2254
aS'http://en.wikipedia.org/wiki/Education'
p2255
aS'http://en.wikipedia.org/wiki/Kent_State_University'
p2256
aS'http://en.wikipedia.org/wiki/Coyote_teaching'
p2257
aS'http://en.wikipedia.org/wiki/ORPHEUS:_Organisation_for_PhD_Education_in_Biomedicine_and_Health_Sciences_in_the_European_System'
p2258
aS'http://en.wikipedia.org/wiki/Curriculum_development'
p2259
aS'http://en.wikipedia.org/wiki/Prefectural_university'
p2260
aS'http://en.wikipedia.org/wiki/Southern_University_at_New_Orleans'
p2261
aS'http://en.wikipedia.org/wiki/University_of_Salamanca'
p2262
aS'http://en.wikipedia.org/wiki/Texas_State_Technical_College_System'
p2263
aS'http://en.wikipedia.org/wiki/Brookhaven_College'
p2264
aS'http://en.wikipedia.org/wiki/Eastern_Idaho_Technical_College'
p2265
aS'http://en.wikipedia.org/wiki/Southside_Virginia_Community_College'
p2266
aS'http://en.wikipedia.org/wiki/Texas_Christian_University'
p2267
aS'http://en.wikipedia.org/wiki/Polk_State_College'
p2268
aS'http://en.wikipedia.org/wiki/Adult_learner'
p2269
aS'http://en.wikipedia.org/wiki/Farm_and_Industry_Short_Course'
p2270
aS'http://en.wikipedia.org/wiki/Student_development_theories'
p2271
aS'http://en.wikipedia.org/wiki/Lectern'
p2272
aS'http://en.wikipedia.org/wiki/Underwater_basket_weaving'
p2273
aS'http://en.wikipedia.org/wiki/Society_for_Promoting_Christian_Knowledge'
p2274
aS'http://en.wikipedia.org/wiki/TimeML'
p2275
aS'http://en.wikipedia.org/wiki/Caleb_Gattegno'
p2276
aS'http://en.wikipedia.org/wiki/Curriculum_for_Excellence'
p2277
aS'http://en.wikipedia.org/wiki/The_Weird_Weekend'
p2278
aS'http://en.wikipedia.org/wiki/Freshman'
p2279
aS'http://en.wikipedia.org/wiki/Brescia_University'
p2280
aS'http://en.wikipedia.org/wiki/Public_Knowledge_Project'
p2281
aS'http://en.wikipedia.org/wiki/GameChangers'
p2282
aS'http://en.wikipedia.org/wiki/Brewton%E2%80%93Parker_College'
p2283
aS'http://en.wikipedia.org/wiki/EuroSTAR_Conference'
p2284
aS'http://en.wikipedia.org/wiki/Record_type'
p2285
aS'http://en.wikipedia.org/wiki/DataCite'
p2286
aS'http://en.wikipedia.org/wiki/International_Studies_Conference'
p2287
aS'http://en.wikipedia.org/wiki/ChemXSeer'
p2288
aS'http://en.wikipedia.org/wiki/Armstrong_Atlantic_State_University'
p2289
aS'http://en.wikipedia.org/wiki/Evidence_Based_Library_and_Information_Practice_(journal)'
p2290
aS'http://en.wikipedia.org/wiki/North_Georgia_College_%26_State_University'
p2291
aS'http://en.wikipedia.org/wiki/Instructional_Skills_Workshop'
p2292
aS'http://en.wikipedia.org/wiki/Universidad_Ju%C3%A1rez_Aut%C3%B3noma_de_Tabasco'
p2293
aS'http://en.wikipedia.org/wiki/Scholarly_Publishing_Office'
p2294
aS'http://en.wikipedia.org/wiki/Alberta_Law_Review'
p2295
aS'http://en.wikipedia.org/wiki/Relative_age_effect'
p2296
aS'http://en.wikipedia.org/wiki/University_of_Guam'
p2297
aS'http://en.wikipedia.org/wiki/Plan_of_Study_for_Girls'
p2298
aS'http://en.wikipedia.org/wiki/Centre_for_Innovation_and_Structural_Change'
p2299
aS'http://en.wikipedia.org/wiki/Statutory_college'
p2300
aS'http://en.wikipedia.org/wiki/Co-construction'
p2301
aS'http://en.wikipedia.org/wiki/Durham_Technical_Community_College'
p2302
aS'http://en.wikipedia.org/wiki/International_Workshop_on_Balto-Slavic_Accentology'
p2303
aS'http://en.wikipedia.org/wiki/Sarah_and_Ernest_Butler_School_of_Music'
p2304
aS'http://en.wikipedia.org/wiki/Scientific_journal'
p2305
aS'http://en.wikipedia.org/wiki/Literature_review'
p2306
aS'http://en.wikipedia.org/wiki/Brian_Safdari'
p2307
aS'http://en.wikipedia.org/wiki/Academic_dishonesty'
p2308
aS'http://en.wikipedia.org/wiki/Text,_speech_and_dialogue'
p2309
aS'http://en.wikipedia.org/wiki/DreamSpark'
p2310
aS'http://en.wikipedia.org/wiki/Taking_Children_Seriously'
p2311
aS'http://en.wikipedia.org/wiki/South_Piedmont_Community_College'
p2312
aS'http://en.wikipedia.org/wiki/University_of_Pittsburgh'
p2313
aS'http://en.wikipedia.org/wiki/Female_seminary'
p2314
aS'http://en.wikipedia.org/wiki/University_of_Texas_at_Brownsville'
p2315
aS'http://en.wikipedia.org/wiki/International_Congress_for_the_Victims_of_Terrorism'
p2316
aS'http://en.wikipedia.org/wiki/Ira_W._Sohn_Investment_Research_Conference'
p2317
aS'http://en.wikipedia.org/wiki/Microsoft_Compiled_HTML_Help'
p2318
aS'http://en.wikipedia.org/wiki/Victoria_University_of_Wellington'
p2319
aS'http://en.wikipedia.org/wiki/Guilford_Technical_Community_College'
p2320
aS'http://en.wikipedia.org/wiki/National_Polytechnic_School'
p2321
aS'http://en.wikipedia.org/wiki/Karnataka_Veterinary,_Animal_and_Fisheries_Sciences_University'
p2322
aS'http://en.wikipedia.org/wiki/Copyright_policies_of_academic_publishers'
p2323
aS'http://en.wikipedia.org/wiki/%C3%89cole_nationale_d%27administration_publique'
p2324
aS'http://en.wikipedia.org/wiki/University_of_Auckland'
p2325
aS'http://en.wikipedia.org/wiki/University_of_South_Dakota'
p2326
aS'http://en.wikipedia.org/wiki/Internet_tutorial'
p2327
aS'http://en.wikipedia.org/wiki/Universal_Data_Element_Framework'
p2328
aS'http://en.wikipedia.org/wiki/College_of_the_Mainland'
p2329
aS'http://en.wikipedia.org/wiki/Pre-tertiary_education'
p2330
aS'http://en.wikipedia.org/wiki/Communication_studies'
p2331
aS'http://en.wikipedia.org/wiki/Peerage_of_science'
p2332
aS'http://en.wikipedia.org/wiki/Eastern_Florida_State_College'
p2333
aS'http://en.wikipedia.org/wiki/Basic_English'
p2334
aS'http://en.wikipedia.org/wiki/The_SRI_Conference'
p2335
aS'http://en.wikipedia.org/wiki/Learnscapes'
p2336
aS'http://en.wikipedia.org/wiki/The_Closing_of_the_American_Mind'
p2337
aS'http://en.wikipedia.org/wiki/Memphis_Theological_Seminary'
p2338
aS'http://en.wikipedia.org/wiki/University_of_Tennessee_Health_Science_Center'
p2339
aS'http://en.wikipedia.org/wiki/Miami_Dade_College'
p2340
aS'http://en.wikipedia.org/wiki/BiblioVault'
p2341
aS'http://en.wikipedia.org/wiki/History_of_school_counseling'
p2342
aS'http://en.wikipedia.org/wiki/Lev_Sandakchiev'
p2343
aS'http://en.wikipedia.org/wiki/Boston_University'
p2344
aS'http://en.wikipedia.org/wiki/Key_Stage'
p2345
aS'http://en.wikipedia.org/wiki/Universidad_de_las_Am%C3%A9ricas_Puebla'
p2346
aS'http://en.wikipedia.org/wiki/Academic_authorship'
p2347
aS'http://en.wikipedia.org/wiki/Instruction_creep'
p2348
aS'http://en.wikipedia.org/wiki/Servitor'
p2349
aS'http://en.wikipedia.org/wiki/Ernest_R._House'
p2350
aS'http://en.wikipedia.org/wiki/Teaching_philosophy'
p2351
aS'http://en.wikipedia.org/wiki/Amridge_University'
p2352
aS'http://en.wikipedia.org/wiki/GetCITED'
p2353
aS'http://en.wikipedia.org/wiki/Global_studies'
p2354
aS'http://en.wikipedia.org/wiki/First_School_War'
p2355
aS'http://en.wikipedia.org/wiki/Sowela_Technical_Community_College'
p2356
aS'http://en.wikipedia.org/wiki/Wilkes_Community_College'
p2357
aS'http://en.wikipedia.org/wiki/Scholastic_probation'
p2358
aS'http://en.wikipedia.org/wiki/Scholarly_communication'
p2359
aS'http://en.wikipedia.org/wiki/Spartanburg_Methodist_College'
p2360
aS'http://en.wikipedia.org/wiki/Edmonton_Public_Schools'
p2361
aS'http://en.wikipedia.org/wiki/Connotations_symposia'
p2362
aS'http://en.wikipedia.org/wiki/Traditional_education'
p2363
aS'http://en.wikipedia.org/wiki/B_Sides_(Security_Conference)'
p2364
aS'http://en.wikipedia.org/wiki/Southwestern_Christian_College'
p2365
aS'http://en.wikipedia.org/wiki/University_of_California'
p2366
aS'http://en.wikipedia.org/wiki/Project_MUSE'
p2367
aS'http://en.wikipedia.org/wiki/University_of_North_Dakota_College_of_Arts_and_Sciences'
p2368
aS'http://en.wikipedia.org/wiki/Revision_control'
p2369
aS'http://en.wikipedia.org/wiki/Comprehensive_examination'
p2370
aS'http://en.wikipedia.org/wiki/StarDate_(radio_program)'
p2371
aS'http://en.wikipedia.org/wiki/Southwestern_Baptist_Theological_Seminary'
p2372
aS'http://en.wikipedia.org/wiki/State_University_System_of_Florida'
p2373
aS'http://en.wikipedia.org/wiki/Oregon_State_University'
p2374
aS'http://en.wikipedia.org/wiki/MERLOT'
p2375
aS'http://en.wikipedia.org/wiki/CDIO'
p2376
aS'http://en.wikipedia.org/wiki/Talmudic_Academies_in_Babylonia'
p2377
aS'http://en.wikipedia.org/wiki/Just_in_Time_Teaching'
p2378
aS'http://en.wikipedia.org/wiki/Indiana_University'
p2379
aS'http://en.wikipedia.org/wiki/Southwestern_Adventist_University'
p2380
aS'http://en.wikipedia.org/wiki/Young_Harris_College'
p2381
aS'http://en.wikipedia.org/wiki/Evolving_capacities'
p2382
aS'http://en.wikipedia.org/wiki/Cathedral_school'
p2383
aS'http://en.wikipedia.org/wiki/Technical_writing'
p2384
aS'http://en.wikipedia.org/wiki/John_S._Davidson_Fine_Arts_Magnet_School'
p2385
aS'http://en.wikipedia.org/wiki/Free_On-line_Dictionary_of_Computing'
p2386
aS'http://en.wikipedia.org/wiki/Keiser_University_%E2%80%93_College_of_Golf'
p2387
aS'http://en.wikipedia.org/wiki/Slow_Science'
p2388
aS'http://en.wikipedia.org/wiki/Shelton_State_Community_College'
p2389
aS'http://en.wikipedia.org/wiki/Schematic'
p2390
aS'http://en.wikipedia.org/wiki/Proceedings'
p2391
aS'http://en.wikipedia.org/wiki/University_of_Georgia'
p2392
aS'http://en.wikipedia.org/wiki/Residential_college'
p2393
aS'http://en.wikipedia.org/wiki/Galveston_College'
p2394
aS'http://en.wikipedia.org/wiki/University_of_Maryland_University_College'
p2395
aS'http://en.wikipedia.org/wiki/George_Mason_University'
p2396
aS'http://en.wikipedia.org/wiki/Tanglewood_Symposium'
p2397
aS'http://en.wikipedia.org/wiki/Brevet_de_Technicien_Sup%C3%A9rieur'
p2398
aS'http://en.wikipedia.org/wiki/Language-independent_specification'
p2399
aS'http://en.wikipedia.org/wiki/Clark_Atlanta_University'
p2400
aS'http://en.wikipedia.org/wiki/Zero_reject'
p2401
aS'http://en.wikipedia.org/wiki/Academic_journal'
p2402
aS'http://en.wikipedia.org/wiki/Neohumanism'
p2403
aS'http://en.wikipedia.org/wiki/Buchtel_College_of_Arts_and_Sciences'
p2404
aS'http://en.wikipedia.org/wiki/Institute_of_Rural_Management_Anand'
p2405
aS'http://en.wikipedia.org/wiki/Labels_for_Education'
p2406
aS'http://en.wikipedia.org/wiki/Queens_University_of_Charlotte'
p2407
aS'http://en.wikipedia.org/wiki/Robert_E._Horn'
p2408
aS'http://en.wikipedia.org/wiki/Thesis_by_publication'
p2409
aS'http://en.wikipedia.org/wiki/Willy_Moog'
p2410
aS'http://en.wikipedia.org/wiki/Topic-based_authoring'
p2411
aS'http://en.wikipedia.org/wiki/Global_Interdependence_Center'
p2412
aS'http://en.wikipedia.org/wiki/Electronic_performance_support_systems'
p2413
aS'http://en.wikipedia.org/wiki/K12_(company)'
p2414
aS'http://en.wikipedia.org/wiki/School'
p2415
aS'http://en.wikipedia.org/wiki/Tech@State'
p2416
aS'http://en.wikipedia.org/wiki/Hebrew_school'
p2417
aS'http://en.wikipedia.org/wiki/University_at_Albany,_SUNY'
p2418
aS'http://en.wikipedia.org/wiki/Delta_State_University'
p2419
aS'http://en.wikipedia.org/wiki/Wharton_County_Junior_College'
p2420
aS'http://en.wikipedia.org/wiki/Coastal_Bend_College'
p2421
aS'http://en.wikipedia.org/wiki/Huston%E2%80%93Tillotson_University'
p2422
aS'http://en.wikipedia.org/wiki/Steiner_Schools_Australia'
p2423
aS'http://en.wikipedia.org/wiki/Miles_College'
p2424
aS'http://en.wikipedia.org/wiki/Reich_Chancellery_meeting_of_12_December_1941'
p2425
aS'http://en.wikipedia.org/wiki/Announcement_(computing)'
p2426
aS'http://en.wikipedia.org/wiki/Reporting_bias'
p2427
aS'http://en.wikipedia.org/wiki/Lynchburg_College'
p2428
aS'http://en.wikipedia.org/wiki/Nation_(university)'
p2429
aS'http://en.wikipedia.org/wiki/The_Citadel,_The_Military_College_of_South_Carolina'
p2430
aS'http://en.wikipedia.org/wiki/Minimalism_(technical_communication)'
p2431
aS'http://en.wikipedia.org/wiki/Gaston_College'
p2432
aS'http://en.wikipedia.org/wiki/Everglades_University'
p2433
aS'http://en.wikipedia.org/wiki/Center_for_Iconographic_Studies'
p2434
aS'http://en.wikipedia.org/wiki/Comics_Arts_Conference'
p2435
aS'http://en.wikipedia.org/wiki/History_of_the_English_language_(education)'
p2436
aS'http://en.wikipedia.org/wiki/North_Greenville_University'
p2437
aS'http://en.wikipedia.org/wiki/Appalachian_College_of_Pharmacy'
p2438
aS'http://en.wikipedia.org/wiki/Davidson_County_Community_College'
p2439
aS'http://en.wikipedia.org/wiki/Corps_Altsachsen_Dresden'
p2440
aS'http://en.wikipedia.org/wiki/Early_childhood_education'
p2441
aS'http://en.wikipedia.org/wiki/University_of_Alberta_Facult%C3%A9_Saint-Jean'
p2442
aS'http://en.wikipedia.org/wiki/University_of_Mississippi'
p2443
aS'http://en.wikipedia.org/wiki/Reinhardt_University'
p2444
aS'http://en.wikipedia.org/wiki/University_of_Malta'
p2445
aS'http://en.wikipedia.org/wiki/University_of_Illinois_at_Urbana%E2%80%93Champaign'
p2446
aS'http://en.wikipedia.org/wiki/Annual_International_Conference_on_Real_Options'
p2447
aS'http://en.wikipedia.org/wiki/Gender_disparities_in_Kenyan_education'
p2448
aS'http://en.wikipedia.org/wiki/Paddy_Crean_International_Stage_Combat_Conferences'
p2449
aS'http://en.wikipedia.org/wiki/International_Association_of_Scientific,_Technical,_and_Medical_Publishers'
p2450
aS'http://en.wikipedia.org/wiki/Global_Initiatives_Symposium_in_Taiwan'
p2451
aS'http://en.wikipedia.org/wiki/AS4'
p2452
aS'http://en.wikipedia.org/wiki/Youth_voice'
p2453
aS'http://en.wikipedia.org/wiki/Concordia_University_Texas'
p2454
aS'http://en.wikipedia.org/wiki/Chic_Meets_Geek'
p2455
aS'http://en.wikipedia.org/wiki/Curriculum_and_Standards_Framework'
p2456
aS'http://en.wikipedia.org/wiki/Georgia_Southwestern_State_University'
p2457
aS'http://en.wikipedia.org/wiki/City_College_of_New_York'
p2458
aS'http://en.wikipedia.org/wiki/Coahoma_Community_College'
p2459
aS'http://en.wikipedia.org/wiki/University_of_North_Georgia'
p2460
aS'http://en.wikipedia.org/wiki/International_Conference_on_Parallel_and_Distributed_Systems'
p2461
aS'http://en.wikipedia.org/wiki/University_of_Wyoming'
p2462
aS'http://en.wikipedia.org/wiki/Southeastern_Community_College_(North_Carolina)'
p2463
aS'http://en.wikipedia.org/wiki/University_of_applied_sciences_(Finland)'
p2464
aS'http://en.wikipedia.org/wiki/Lamar_State_College%E2%80%93Port_Arthur'
p2465
aS'http://en.wikipedia.org/wiki/Lamar_University'
p2466
aS'http://en.wikipedia.org/wiki/Point_University'
p2467
aS'http://en.wikipedia.org/wiki/Binghamton_University'
p2468
aS'http://en.wikipedia.org/wiki/University_of_North_Texas'
p2469
aS'http://en.wikipedia.org/wiki/Single_source_publishing'
p2470
aS'http://en.wikipedia.org/wiki/University_of_%C5%81%C3%B3d%C5%BA'
p2471
aS'http://en.wikipedia.org/wiki/General_formal_ontology'
p2472
aS'http://en.wikipedia.org/wiki/Authors%27_conference'
p2473
aS'http://en.wikipedia.org/wiki/Salem_College'
p2474
aS'http://en.wikipedia.org/wiki/Academic_capital'
p2475
aS'http://en.wikipedia.org/wiki/Tabor_Rotation'
p2476
aS'http://en.wikipedia.org/wiki/University_of_Richmond'
p2477
aS'http://en.wikipedia.org/wiki/Compostmodern'
p2478
aS'http://en.wikipedia.org/wiki/New_Ways_of_Analyzing_Variation'
p2479
aS'http://en.wikipedia.org/wiki/Queen_Salote_College'
p2480
aS'http://en.wikipedia.org/wiki/Bathurst_High_School_(New_South_Wales)'
p2481
aS'http://en.wikipedia.org/wiki/Universidad_del_Noreste'
p2482
aS'http://en.wikipedia.org/wiki/Institutional_pedagogy'
p2483
aS'http://en.wikipedia.org/wiki/Stillman_College'
p2484
aS'http://en.wikipedia.org/wiki/University_of_Maryland_Eastern_Shore'
p2485
aS'http://en.wikipedia.org/wiki/Foundation_Stage'
p2486
aS'http://en.wikipedia.org/wiki/Undocumented_feature'
p2487
aS'http://en.wikipedia.org/wiki/Yorktown_High_School_(Virginia)'
p2488
aS'http://en.wikipedia.org/wiki/Subpage'
p2489
aS'http://en.wikipedia.org/wiki/Winston-Salem_State_University'
p2490
aS'http://en.wikipedia.org/wiki/Claude_Pollard'
p2491
aS'http://en.wikipedia.org/wiki/Sustainable_development'
p2492
aS'http://en.wikipedia.org/wiki/Ground_System_Architectures_Workshop'
p2493
aS'http://en.wikipedia.org/wiki/Indiana_University_%E2%80%93_Purdue_University_Indianapolis'
p2494
aS'http://en.wikipedia.org/wiki/Tavrida_National_V.I._Vernadsky_University'
p2495
aS'http://en.wikipedia.org/wiki/Anderson_University_(South_Carolina)'
p2496
aS'http://en.wikipedia.org/wiki/East_Tennessee_State_University'
p2497
aS'http://en.wikipedia.org/wiki/Student_voice'
p2498
aS'http://en.wikipedia.org/wiki/Our_Lady_of_the_Lake_University'
p2499
aS'http://en.wikipedia.org/wiki/Wellness_in_school'
p2500
aS'http://en.wikipedia.org/wiki/Board_of_education'
p2501
aS'http://en.wikipedia.org/wiki/Open_Knowledge_Society'
p2502
aS'http://en.wikipedia.org/wiki/Brandman_University'
p2503
aS'http://en.wikipedia.org/wiki/Flexibility-usability_tradeoff'
p2504
aS'http://en.wikipedia.org/wiki/Settlement_movement'
p2505
aS'http://en.wikipedia.org/wiki/Corpus_Scriptorum_Historiae_Byzantinae'
p2506
aS'http://en.wikipedia.org/wiki/Chipola_College'
p2507
aS'http://en.wikipedia.org/wiki/Israeli_Presidential_Conference'
p2508
aS'http://en.wikipedia.org/wiki/VMQ'
p2509
aS'http://en.wikipedia.org/wiki/Morehouse_College'
p2510
aS'http://en.wikipedia.org/wiki/Ashland_Community_and_Technical_College'
p2511
aS'http://en.wikipedia.org/wiki/One-room_school'
p2512
aS'http://en.wikipedia.org/wiki/International_Conference_on_Creationism'
p2513
aS'http://en.wikipedia.org/wiki/University_of_Alberta_Faculty_of_Medicine_and_Dentistry'
p2514
aS'http://en.wikipedia.org/wiki/Southern_University_System'
p2515
aS'http://en.wikipedia.org/wiki/Twenty_First_Century_Science'
p2516
aS'http://en.wikipedia.org/wiki/Man_page'
p2517
aS'http://en.wikipedia.org/wiki/History_of_knowledge'
p2518
aS'http://en.wikipedia.org/wiki/Mississippi_Delta_Community_College'
p2519
aS'http://en.wikipedia.org/wiki/National_University_%E2%80%9CYaroslav_the_Wise_Law_Academy_of_Ukraine%E2%80%9D'
p2520
aS'http://en.wikipedia.org/wiki/Campbell_University'
p2521
aS'http://en.wikipedia.org/wiki/Copiah-Lincoln_Community_College'
p2522
aS'http://en.wikipedia.org/wiki/Institute_for_Communications_Law_Studies'
p2523
aS'http://en.wikipedia.org/wiki/Fort_Valley_State_University'
p2524
aS'http://en.wikipedia.org/wiki/Undergraduate_education'
p2525
aS'http://en.wikipedia.org/wiki/Barton_College'
p2526
aS'http://en.wikipedia.org/wiki/Texas_College'
p2527
aS'http://en.wikipedia.org/wiki/University_of_Poitiers'
p2528
aS'http://en.wikipedia.org/wiki/University_of_Swat'
p2529
aS'http://en.wikipedia.org/wiki/Kleine_Schriften'
p2530
aS'http://en.wikipedia.org/wiki/South_Dakota_State_University'
p2531
aS'http://en.wikipedia.org/wiki/Colorado_State_University'
p2532
aS'http://en.wikipedia.org/wiki/Angelo_State_University'
p2533
aS'http://en.wikipedia.org/wiki/Washington_and_Lee_University'
p2534
aS'http://en.wikipedia.org/wiki/School_supplies'
p2535
aS'http://en.wikipedia.org/wiki/Centre_for_Social_Studies'
p2536
aS'http://en.wikipedia.org/wiki/Warwick_Economics_Summit'
p2537
aS'http://en.wikipedia.org/wiki/Mary_Baldwin_College'
p2538
aS'http://en.wikipedia.org/wiki/Association_for_Laboratory_Phonology'
p2539
aS'http://en.wikipedia.org/wiki/Texas_State_University_Round_Rock_Campus'
p2540
aS'http://en.wikipedia.org/wiki/Kennesaw_State_University'
p2541
aS'http://en.wikipedia.org/wiki/HKUST_Institute_for_Emerging_Market_Studies'
p2542
aS'http://en.wikipedia.org/wiki/Extensible_Forms_Description_Language'
p2543
aS'http://en.wikipedia.org/wiki/Central_University_of_Kerala'
p2544
aS'http://en.wikipedia.org/wiki/Hochschule_f%C3%BCr_Musik_Carl_Maria_von_Weber'
p2545
aS'http://en.wikipedia.org/wiki/St_Dominic%27s_Priory_College,_Adelaide'
p2546
aS'http://en.wikipedia.org/wiki/University_of_South_Florida'
p2547
aS'http://en.wikipedia.org/wiki/LSU_Health_Sciences_Center_Shreveport'
p2548
aS'http://en.wikipedia.org/wiki/Carson-Newman_University'
p2549
aS'http://en.wikipedia.org/wiki/Livingstone_College'
p2550
aS'http://en.wikipedia.org/wiki/Asheville%E2%80%93Buncombe_Technical_Community_College'
p2551
aS'http://en.wikipedia.org/wiki/Ithaka_Harbors'
p2552
aS'http://en.wikipedia.org/wiki/University_of_Latvia'
p2553
aS'http://en.wikipedia.org/wiki/Free_Knowledge_Institute'
p2554
aS'http://en.wikipedia.org/wiki/Abilene_Christian_University_College_of_Arts_and_Sciences'
p2555
aS'http://en.wikipedia.org/wiki/Greater_North_Central_Francophone_Education_Region_No._2'
p2556
aS'http://en.wikipedia.org/wiki/Center_for_Technology_in_Government'
p2557
aS'http://en.wikipedia.org/wiki/Grovo'
p2558
aS'http://en.wikipedia.org/wiki/State_university_and_college_(Philippines)'
p2559
aS'http://en.wikipedia.org/wiki/Registry_of_Research_Data_Repositories'
p2560
aS'http://en.wikipedia.org/wiki/Cisco_College'
p2561
aS'http://en.wikipedia.org/wiki/Wright_State_University'
p2562
aS'http://en.wikipedia.org/wiki/The_Presbyterian_College,_Montreal'
p2563
aS'http://en.wikipedia.org/wiki/%C3%89cole_sup%C3%A9rieure_de_chimie_physique_%C3%A9lectronique_de_Lyon'
p2564
aS'http://en.wikipedia.org/wiki/Texas_Woman%27s_University'
p2565
aS'http://en.wikipedia.org/wiki/Authentica_habita'
p2566
aS'http://en.wikipedia.org/wiki/Shaykh_Mufti_Saiful_Islam_Sahib'
p2567
aS'http://en.wikipedia.org/wiki/Virginia_Military_Institute'
p2568
aS'http://en.wikipedia.org/wiki/Discipline_(academia)'
p2569
aS'http://en.wikipedia.org/wiki/Postprint'
p2570
aS'http://en.wikipedia.org/wiki/Contemplative_education'
p2571
aS'http://en.wikipedia.org/wiki/Erskine_College'
p2572
aS'http://en.wikipedia.org/wiki/Surry_Community_College'
p2573
aS'http://en.wikipedia.org/wiki/Agoge'
p2574
aS'http://en.wikipedia.org/wiki/Indian_Institute_of_Islamic_Studies'
p2575
aS'http://en.wikipedia.org/wiki/Darwin_Information_Typing_Architecture'
p2576
aS'http://en.wikipedia.org/wiki/Comenius_Foundation_for_Child_Development'
p2577
aS'http://en.wikipedia.org/wiki/Software_documentation'
p2578
aS'http://en.wikipedia.org/wiki/Community_Development_%26_Leadership_Summit'
p2579
aS'http://en.wikipedia.org/wiki/Water_Data_Transfer_Format'
p2580
aS'http://en.wikipedia.org/wiki/Outline_of_open_education'
p2581
aS'http://en.wikipedia.org/wiki/Forsyth_Technical_Community_College'
p2582
aS'http://en.wikipedia.org/wiki/Appreciative_advising'
p2583
aS'http://en.wikipedia.org/wiki/Training_workshop'
p2584
aS'http://en.wikipedia.org/wiki/Contract_Grading'
p2585
a.