(lp0
S'http://en.wikipedia.org/wiki/Perla_Haney-Jardine'
p1
aS'http://en.wikipedia.org/wiki/Alexandra_Daddario'
p2
aS'http://en.wikipedia.org/wiki/Frankie_Shaw'
p3
aS'http://en.wikipedia.org/wiki/Taryn_Southern'
p4
aS'http://en.wikipedia.org/wiki/Hillary_B._Smith'
p5
aS'http://en.wikipedia.org/wiki/Claudia_McNeil'
p6
aS'http://en.wikipedia.org/wiki/Kyme_(actress)'
p7
aS'http://en.wikipedia.org/wiki/Michael_Michele'
p8
aS'http://en.wikipedia.org/wiki/Taylor_Dayne'
p9
aS'http://en.wikipedia.org/wiki/Lupe_Ontiveros'
p10
aS'http://en.wikipedia.org/wiki/Laura_Cer%C3%B3n'
p11
aS'http://en.wikipedia.org/wiki/Michaela_McManus'
p12
aS'http://en.wikipedia.org/wiki/Emma_Bell'
p13
aS'http://en.wikipedia.org/wiki/Evelyn_Finley'
p14
aS'http://en.wikipedia.org/wiki/Jessica_Chastain'
p15
aS'http://en.wikipedia.org/wiki/Emma_Degerstedt'
p16
aS'http://en.wikipedia.org/wiki/Christine_Baranski'
p17
aS'http://en.wikipedia.org/wiki/Anne_Howard_(actress)'
p18
aS'http://en.wikipedia.org/wiki/Kaitlin_Cullum'
p19
aS'http://en.wikipedia.org/wiki/LuAnn_de_Lesseps'
p20
aS'http://en.wikipedia.org/wiki/Sabrina_Bryan'
p21
aS'http://en.wikipedia.org/wiki/Joan_Allen'
p22
aS'http://en.wikipedia.org/wiki/Martha_Wentworth'
p23
aS'http://en.wikipedia.org/wiki/Tristin_Mays'
p24
aS'http://en.wikipedia.org/wiki/Bette_Henritze'
p25
aS'http://en.wikipedia.org/wiki/Lena_Hall'
p26
aS'http://en.wikipedia.org/wiki/Laurie_Bartram'
p27
aS'http://en.wikipedia.org/wiki/Natalia_Cigliuti'
p28
aS'http://en.wikipedia.org/wiki/Lily_Tomlin'
p29
aS'http://en.wikipedia.org/wiki/Kerris_Dorsey'
p30
aS'http://en.wikipedia.org/wiki/Rachel_Bilson'
p31
aS'http://en.wikipedia.org/wiki/Paget_Brewster'
p32
aS'http://en.wikipedia.org/wiki/Flora_Chan'
p33
aS'http://en.wikipedia.org/wiki/Christy_Hartburg'
p34
aS'http://en.wikipedia.org/wiki/Keesha_Sharp'
p35
aS'http://en.wikipedia.org/wiki/Daria_Halprin'
p36
aS'http://en.wikipedia.org/wiki/Lori_Cardille'
p37
aS'http://en.wikipedia.org/wiki/Kate_Williamson'
p38
aS'http://en.wikipedia.org/wiki/Kate_McKinnon'
p39
aS'http://en.wikipedia.org/wiki/Jana_Marie_Hupp'
p40
aS'http://en.wikipedia.org/wiki/Anne_Meara'
p41
aS'http://en.wikipedia.org/wiki/Kathy_Rose'
p42
aS'http://en.wikipedia.org/wiki/Anne_Meacham'
p43
aS'http://en.wikipedia.org/wiki/Jane_Isbell'
p44
aS'http://en.wikipedia.org/wiki/Geena_Davis'
p45
aS'http://en.wikipedia.org/wiki/Constance_Forslund'
p46
aS'http://en.wikipedia.org/wiki/Amanda_Detmer'
p47
aS'http://en.wikipedia.org/wiki/Patsy_Ruth_Miller'
p48
aS'http://en.wikipedia.org/wiki/Allie_Grant'
p49
aS'http://en.wikipedia.org/wiki/Mia_Tyler'
p50
aS'http://en.wikipedia.org/wiki/Shelley_Fabares'
p51
aS'http://en.wikipedia.org/wiki/Michele_Hicks'
p52
aS'http://en.wikipedia.org/wiki/Marjorie_Eaton'
p53
aS'http://en.wikipedia.org/wiki/Lisa_Janti'
p54
aS'http://en.wikipedia.org/wiki/Jan_Hoag'
p55
aS'http://en.wikipedia.org/wiki/Lana_Wood'
p56
aS'http://en.wikipedia.org/wiki/Yvonne_Hughes'
p57
aS'http://en.wikipedia.org/wiki/Gloria_Winters'
p58
aS'http://en.wikipedia.org/wiki/Lil_Mama'
p59
aS'http://en.wikipedia.org/wiki/Blanche_Yurka'
p60
aS'http://en.wikipedia.org/wiki/Catherine_Oxenberg'
p61
aS'http://en.wikipedia.org/wiki/Peter_Brown_(singer)'
p62
aS'http://en.wikipedia.org/wiki/Maureen_Anderman'
p63
aS'http://en.wikipedia.org/wiki/Becky_Baeling'
p64
aS'http://en.wikipedia.org/wiki/Lisa_Arch'
p65
aS'http://en.wikipedia.org/wiki/Syr_Law'
p66
aS'http://en.wikipedia.org/wiki/Lisa_Edelstein'
p67
aS'http://en.wikipedia.org/wiki/Calpernia_Addams'
p68
aS'http://en.wikipedia.org/wiki/Lily_Collins'
p69
aS'http://en.wikipedia.org/wiki/Gabrielle_Anwar'
p70
aS'http://en.wikipedia.org/wiki/Sharry_Konopski'
p71
aS'http://en.wikipedia.org/wiki/Lauren_Tom'
p72
aS'http://en.wikipedia.org/wiki/Larissa_Drekonja'
p73
aS'http://en.wikipedia.org/wiki/Lainie_Kazan'
p74
aS'http://en.wikipedia.org/wiki/Nicole_Bilderback'
p75
aS'http://en.wikipedia.org/wiki/Jordin_Sparks'
p76
aS'http://en.wikipedia.org/wiki/Audrey_Wasilewski'
p77
aS'http://en.wikipedia.org/wiki/Parker_Posey'
p78
aS'http://en.wikipedia.org/wiki/Mimi_Gianopulos'
p79
aS'http://en.wikipedia.org/wiki/Celeste_Holm'
p80
aS'http://en.wikipedia.org/wiki/Boots_Mallory'
p81
aS'http://en.wikipedia.org/wiki/Anne_Baxter'
p82
aS'http://en.wikipedia.org/wiki/Edie_Falco'
p83
aS'http://en.wikipedia.org/wiki/Joan_Juliet_Buck'
p84
aS'http://en.wikipedia.org/wiki/Janine_Turner'
p85
aS'http://en.wikipedia.org/wiki/Mia_Rose_Frampton'
p86
aS'http://en.wikipedia.org/wiki/David_Morales'
p87
aS'http://en.wikipedia.org/wiki/Eileen_April_Boylan'
p88
aS'http://en.wikipedia.org/wiki/Sarah_Stiles'
p89
aS'http://en.wikipedia.org/wiki/Mia_Wesley'
p90
aS'http://en.wikipedia.org/wiki/Madolyn_Smith_Osborne'
p91
aS'http://en.wikipedia.org/wiki/Ambyr_Childers'
p92
aS'http://en.wikipedia.org/wiki/Mary_Boland'
p93
aS'http://en.wikipedia.org/wiki/Morgan_Lily'
p94
aS'http://en.wikipedia.org/wiki/Vernee_Watson-Johnson'
p95
aS'http://en.wikipedia.org/wiki/Helen_Vinson'
p96
aS'http://en.wikipedia.org/wiki/C._C._H._Pounder'
p97
aS'http://en.wikipedia.org/wiki/Diora_Baird'
p98
aS'http://en.wikipedia.org/wiki/Michele_Marsh_(actress)'
p99
aS'http://en.wikipedia.org/wiki/Jobyna_Howland'
p100
aS'http://en.wikipedia.org/wiki/Maya_Deren'
p101
aS'http://en.wikipedia.org/wiki/Jennifer_Crystal_Foley'
p102
aS'http://en.wikipedia.org/wiki/Megalyn_Echikunwoke'
p103
aS'http://en.wikipedia.org/wiki/Diane_Franklin'
p104
aS'http://en.wikipedia.org/wiki/Karen_Morley'
p105
aS'http://en.wikipedia.org/wiki/Ruth_Duccini'
p106
aS'http://en.wikipedia.org/wiki/Lesley_Fera'
p107
aS'http://en.wikipedia.org/wiki/Tammy_Lynn_Leppert'
p108
aS'http://en.wikipedia.org/wiki/Bonnie_Poe'
p109
aS'http://en.wikipedia.org/wiki/Andrea_Anders'
p110
aS'http://en.wikipedia.org/wiki/Dorothy_Arnold_(actress)'
p111
aS'http://en.wikipedia.org/wiki/Pam_Dawber'
p112
aS'http://en.wikipedia.org/wiki/Brenda_Bakke'
p113
aS'http://en.wikipedia.org/wiki/Anastasia_Baranova'
p114
aS'http://en.wikipedia.org/wiki/Nadia_Dajani'
p115
aS'http://en.wikipedia.org/wiki/Amy_O%27Neill'
p116
aS'http://en.wikipedia.org/wiki/Elaine_Hendrix'
p117
aS'http://en.wikipedia.org/wiki/Bessie_Eyton'
p118
aS'http://en.wikipedia.org/wiki/Judy_Landers'
p119
aS'http://en.wikipedia.org/wiki/Irene_Hervey'
p120
aS'http://en.wikipedia.org/wiki/Jillian_Clare'
p121
aS'http://en.wikipedia.org/wiki/Becki_Newton'
p122
aS'http://en.wikipedia.org/wiki/Hunter_Tylo'
p123
aS'http://en.wikipedia.org/wiki/Kortney_Nash'
p124
aS'http://en.wikipedia.org/wiki/Bobbi_Jordan'
p125
aS'http://en.wikipedia.org/wiki/Viola_Richard'
p126
aS'http://en.wikipedia.org/wiki/Kiami_Davael'
p127
aS'http://en.wikipedia.org/wiki/Charlene_Amoia'
p128
aS'http://en.wikipedia.org/wiki/Vikki_Carr'
p129
aS'http://en.wikipedia.org/wiki/Ashley_Greene'
p130
aS'http://en.wikipedia.org/wiki/Alisha_(singer)'
p131
aS'http://en.wikipedia.org/wiki/Phoebe_Legere'
p132
aS'http://en.wikipedia.org/wiki/Rachel_Covey'
p133
aS'http://en.wikipedia.org/wiki/Elizabeth_DeCicco'
p134
aS'http://en.wikipedia.org/wiki/Sadie_Alexandru'
p135
aS'http://en.wikipedia.org/wiki/Sarah_Clarke'
p136
aS'http://en.wikipedia.org/wiki/Katerina_Mikailenko'
p137
aS'http://en.wikipedia.org/wiki/Heidi_Kozak'
p138
aS'http://en.wikipedia.org/wiki/Thelma_Houston'
p139
aS'http://en.wikipedia.org/wiki/Betty_White'
p140
aS'http://en.wikipedia.org/wiki/Susan_Ward'
p141
aS'http://en.wikipedia.org/wiki/Kelli_Williams'
p142
aS'http://en.wikipedia.org/wiki/Jane_Kaczmarek'
p143
aS'http://en.wikipedia.org/wiki/Kate_Mulgrew'
p144
aS'http://en.wikipedia.org/wiki/Natalie_Lander'
p145
aS'http://en.wikipedia.org/wiki/Jenna_Haze'
p146
aS'http://en.wikipedia.org/wiki/Clara_Kimball_Young'
p147
aS'http://en.wikipedia.org/wiki/Francia_Raisa'
p148
aS'http://en.wikipedia.org/wiki/Madeline_Carroll'
p149
aS'http://en.wikipedia.org/wiki/Geraldine_Chaplin'
p150
aS'http://en.wikipedia.org/wiki/Adrianne_Le%C3%B3n'
p151
aS'http://en.wikipedia.org/wiki/Neriah_Davis'
p152
aS'http://en.wikipedia.org/wiki/Alice_Playten'
p153
aS'http://en.wikipedia.org/wiki/Rita_Hayworth'
p154
aS'http://en.wikipedia.org/wiki/Melanie_Specht'
p155
aS'http://en.wikipedia.org/wiki/Allie_DeBerry'
p156
aS'http://en.wikipedia.org/wiki/Gina_Torres'
p157
aS'http://en.wikipedia.org/wiki/Robert_DeLong'
p158
aS'http://en.wikipedia.org/wiki/Lia_Marie_Johnson'
p159
aS'http://en.wikipedia.org/wiki/Flo_Rida'
p160
aS'http://en.wikipedia.org/wiki/Lillian_West'
p161
aS'http://en.wikipedia.org/wiki/Aubrey_Peeples'
p162
aS'http://en.wikipedia.org/wiki/Tia_Carrere'
p163
aS'http://en.wikipedia.org/wiki/Didi_Conn'
p164
aS'http://en.wikipedia.org/wiki/Rosemary_De_Angelis'
p165
aS'http://en.wikipedia.org/wiki/Jill_Latiano'
p166
aS'http://en.wikipedia.org/wiki/Betsy_Russell'
p167
aS'http://en.wikipedia.org/wiki/Jennifer_Siebel_Newsom'
p168
aS'http://en.wikipedia.org/wiki/Lisa_Bonet'
p169
aS'http://en.wikipedia.org/wiki/Robbie_Nevil'
p170
aS'http://en.wikipedia.org/wiki/Cazwell'
p171
aS'http://en.wikipedia.org/wiki/Annie_Ilonzeh'
p172
aS'http://en.wikipedia.org/wiki/Lisa_Vidal'
p173
aS'http://en.wikipedia.org/wiki/Anita_Garvin'
p174
aS'http://en.wikipedia.org/wiki/Carrie_Coon'
p175
aS'http://en.wikipedia.org/wiki/Camryn_Manheim'
p176
aS'http://en.wikipedia.org/wiki/Nick_Lachey'
p177
aS'http://en.wikipedia.org/wiki/Marcia_Gay_Harden'
p178
aS'http://en.wikipedia.org/wiki/Clara_Blandick'
p179
aS'http://en.wikipedia.org/wiki/Hilary_Swank'
p180
aS'http://en.wikipedia.org/wiki/Sue_Hamilton_(model_and_actress)'
p181
aS'http://en.wikipedia.org/wiki/Faune_A._Chambers'
p182
aS'http://en.wikipedia.org/wiki/Aviva_(actress)'
p183
aS'http://en.wikipedia.org/wiki/Allison_Mack'
p184
aS'http://en.wikipedia.org/wiki/Anita_Barone'
p185
aS'http://en.wikipedia.org/wiki/Michelle_Williams_(singer)'
p186
aS'http://en.wikipedia.org/wiki/Jessica_Campbell'
p187
aS'http://en.wikipedia.org/wiki/Lauren_Storm'
p188
aS'http://en.wikipedia.org/wiki/Elizabeth_Daily'
p189
aS'http://en.wikipedia.org/wiki/Haviland_Morris'
p190
aS'http://en.wikipedia.org/wiki/Margo_Martindale'
p191
aS'http://en.wikipedia.org/wiki/Bai_Ling'
p192
aS'http://en.wikipedia.org/wiki/Beth_Toussaint'
p193
aS'http://en.wikipedia.org/wiki/Grace_Helbig'
p194
aS'http://en.wikipedia.org/wiki/Maude_Apatow'
p195
aS'http://en.wikipedia.org/wiki/Paris_Hilton'
p196
aS'http://en.wikipedia.org/wiki/Mischa_Barton'
p197
aS'http://en.wikipedia.org/wiki/Suzi_Lane'
p198
aS'http://en.wikipedia.org/wiki/Sonya_Eddy'
p199
aS'http://en.wikipedia.org/wiki/Carla_Gugino'
p200
aS'http://en.wikipedia.org/wiki/Rebecca_Grant_(American_actress)'
p201
aS'http://en.wikipedia.org/wiki/Ethel_Clayton'
p202
aS'http://en.wikipedia.org/wiki/Paula_Trueman'
p203
aS'http://en.wikipedia.org/wiki/Dianne_Wiest'
p204
aS'http://en.wikipedia.org/wiki/Erica_Gimpel'
p205
aS'http://en.wikipedia.org/wiki/Marge_Kotlisky'
p206
aS'http://en.wikipedia.org/wiki/AnnaLynne_McCord'
p207
aS'http://en.wikipedia.org/wiki/Kerry_Bish%C3%A9'
p208
aS'http://en.wikipedia.org/wiki/Sonja_Sohn'
p209
aS'http://en.wikipedia.org/wiki/Morgan_Brittany'
p210
aS'http://en.wikipedia.org/wiki/Leah_Jenner'
p211
aS'http://en.wikipedia.org/wiki/Mia_Cox'
p212
aS'http://en.wikipedia.org/wiki/Selena'
p213
aS'http://en.wikipedia.org/wiki/Ja%27net_Dubois'
p214
aS'http://en.wikipedia.org/wiki/Erika_Flores'
p215
aS'http://en.wikipedia.org/wiki/Al_Downing_(musician)'
p216
aS'http://en.wikipedia.org/wiki/Lisa_Brenner'
p217
aS'http://en.wikipedia.org/wiki/Michelle_Bauer'
p218
aS'http://en.wikipedia.org/wiki/Katie_Leclerc'
p219
aS'http://en.wikipedia.org/wiki/Mary_McDonnell'
p220
aS'http://en.wikipedia.org/wiki/Gertrude_Flynn'
p221
aS'http://en.wikipedia.org/wiki/Denise_Nicholas'
p222
aS'http://en.wikipedia.org/wiki/Tamara_Mark'
p223
aS'http://en.wikipedia.org/wiki/Lauren_Ambrose'
p224
aS'http://en.wikipedia.org/wiki/Vanessa_Curry'
p225
aS'http://en.wikipedia.org/wiki/Renae_Geerlings'
p226
aS'http://en.wikipedia.org/wiki/Ann_Gillespie'
p227
aS'http://en.wikipedia.org/wiki/Rosanne_Katon'
p228
aS'http://en.wikipedia.org/wiki/Christa_B._Allen'
p229
aS'http://en.wikipedia.org/wiki/Joey_King'
p230
aS'http://en.wikipedia.org/wiki/Ethel_Ayler'
p231
aS'http://en.wikipedia.org/wiki/Sumi_Haru'
p232
aS'http://en.wikipedia.org/wiki/Melanie_Paxson'
p233
aS'http://en.wikipedia.org/wiki/Ally_Sheedy'
p234
aS'http://en.wikipedia.org/wiki/Goldie_Hawn'
p235
aS'http://en.wikipedia.org/wiki/Joanna_Cassidy'
p236
aS'http://en.wikipedia.org/wiki/Moira_Kelly'
p237
aS'http://en.wikipedia.org/wiki/Cybill_Shepherd'
p238
aS'http://en.wikipedia.org/wiki/Michele_Morgan_(American_actress)'
p239
aS'http://en.wikipedia.org/wiki/Celeste_Thorson'
p240
aS'http://en.wikipedia.org/wiki/Debra_Paget'
p241
aS'http://en.wikipedia.org/wiki/Brina_Palencia'
p242
aS'http://en.wikipedia.org/wiki/Amanda_Brooks'
p243
aS'http://en.wikipedia.org/wiki/Maxine_Bahns'
p244
aS'http://en.wikipedia.org/wiki/Jessica_Hecht'
p245
aS'http://en.wikipedia.org/wiki/Katy_Mixon'
p246
aS'http://en.wikipedia.org/wiki/Sandy_Rivera'
p247
aS'http://en.wikipedia.org/wiki/Donna_Summer'
p248
aS'http://en.wikipedia.org/wiki/Jane_Webb'
p249
aS'http://en.wikipedia.org/wiki/Natalie_Dreyfuss'
p250
aS'http://en.wikipedia.org/wiki/Cynthia_Pepper'
p251
aS'http://en.wikipedia.org/wiki/Marie_Shotwell'
p252
aS'http://en.wikipedia.org/wiki/Adair_Tishler'
p253
aS'http://en.wikipedia.org/wiki/Barbara_Feldon'
p254
aS'http://en.wikipedia.org/wiki/Tisha_Campbell-Martin'
p255
aS'http://en.wikipedia.org/wiki/Melinda_Dillon'
p256
aS'http://en.wikipedia.org/wiki/Stella_Maeve'
p257
aS'http://en.wikipedia.org/wiki/India_Summer'
p258
aS'http://en.wikipedia.org/wiki/Vaccine_(musician)'
p259
aS'http://en.wikipedia.org/wiki/Vanessa_Hudgens'
p260
aS'http://en.wikipedia.org/wiki/Natalie_Joy_Johnson'
p261
aS'http://en.wikipedia.org/wiki/Keri_Russell'
p262
aS'http://en.wikipedia.org/wiki/Anne_Dudek'
p263
aS'http://en.wikipedia.org/wiki/Kaycee_Stroh'
p264
aS'http://en.wikipedia.org/wiki/Kelly_Overton_(actress)'
p265
aS'http://en.wikipedia.org/wiki/Hedy_Lamarr'
p266
aS'http://en.wikipedia.org/wiki/Kay_Hughes'
p267
aS'http://en.wikipedia.org/wiki/Kerri_Randles'
p268
aS'http://en.wikipedia.org/wiki/Elizabeth_MacRae'
p269
aS'http://en.wikipedia.org/wiki/Maysoon_Zayid'
p270
aS'http://en.wikipedia.org/wiki/Missy_Elliott'
p271
aS'http://en.wikipedia.org/wiki/Melanie_Iglesias'
p272
aS'http://en.wikipedia.org/wiki/Mary_Martin'
p273
aS'http://en.wikipedia.org/wiki/Marion_Ross'
p274
aS'http://en.wikipedia.org/wiki/Marlo_Dwyer'
p275
aS'http://en.wikipedia.org/wiki/Angela_Stevens'
p276
aS'http://en.wikipedia.org/wiki/Amy_Ferguson'
p277
aS'http://en.wikipedia.org/wiki/Fergie_(singer)'
p278
aS'http://en.wikipedia.org/wiki/Louise_Dresser'
p279
aS'http://en.wikipedia.org/wiki/Natashia_Williams'
p280
aS'http://en.wikipedia.org/wiki/Lois_Collier'
p281
aS'http://en.wikipedia.org/wiki/Taylor_Cole'
p282
aS'http://en.wikipedia.org/wiki/Grace_Moore'
p283
aS'http://en.wikipedia.org/wiki/Amber_Heard'
p284
aS'http://en.wikipedia.org/wiki/Sabrina_Carpenter'
p285
aS'http://en.wikipedia.org/wiki/Sally_Rand'
p286
aS'http://en.wikipedia.org/wiki/Venus_DeMilo'
p287
aS'http://en.wikipedia.org/wiki/Frances_McDormand'
p288
aS'http://en.wikipedia.org/wiki/Dee_Barnes'
p289
aS'http://en.wikipedia.org/wiki/Delia_Bogard'
p290
aS'http://en.wikipedia.org/wiki/Gladys_Brockwell'
p291
aS'http://en.wikipedia.org/wiki/Vera-Ellen'
p292
aS'http://en.wikipedia.org/wiki/Lorna_Gray'
p293
aS'http://en.wikipedia.org/wiki/Wendy_Kaplan'
p294
aS'http://en.wikipedia.org/wiki/Katherine_Helmond'
p295
aS'http://en.wikipedia.org/wiki/Allison_Miller'
p296
aS'http://en.wikipedia.org/wiki/Jeryl_Prescott'
p297
aS'http://en.wikipedia.org/wiki/Mariah_Carey'
p298
aS'http://en.wikipedia.org/wiki/Carrie_Underwood'
p299
aS'http://en.wikipedia.org/wiki/Jeannine_Riley'
p300
aS'http://en.wikipedia.org/wiki/Rita_Carewe'
p301
aS'http://en.wikipedia.org/wiki/Stephanie_Niznik'
p302
aS'http://en.wikipedia.org/wiki/Sheryl_Lee'
p303
aS'http://en.wikipedia.org/wiki/Linda_Doucett'
p304
aS'http://en.wikipedia.org/wiki/Keri_Lynn_Pratt'
p305
aS'http://en.wikipedia.org/wiki/Natasha_Leggero'
p306
aS'http://en.wikipedia.org/wiki/Michele_DeCesare'
p307
aS'http://en.wikipedia.org/wiki/Arden_Myrin'
p308
aS'http://en.wikipedia.org/wiki/Susan_Sarandon'
p309
aS'http://en.wikipedia.org/wiki/Joan_Dixon'
p310
aS'http://en.wikipedia.org/wiki/Madeleine_Martin'
p311
aS'http://en.wikipedia.org/wiki/Joan_Rivers'
p312
aS'http://en.wikipedia.org/wiki/Lori_Singer'
p313
aS'http://en.wikipedia.org/wiki/Maggie_Elizabeth_Jones'
p314
aS'http://en.wikipedia.org/wiki/Lois_Nettleton'
p315
aS'http://en.wikipedia.org/wiki/Suzy_Chaffee'
p316
aS'http://en.wikipedia.org/wiki/Katherine_Walsh_(actress)'
p317
aS'http://en.wikipedia.org/wiki/Angela_Nicoletti'
p318
aS'http://en.wikipedia.org/wiki/Abigail_Spencer'
p319
aS'http://en.wikipedia.org/wiki/Rain_Phoenix'
p320
aS'http://en.wikipedia.org/wiki/Sasha_Alexander'
p321
aS'http://en.wikipedia.org/wiki/Kellee_Stewart'
p322
aS'http://en.wikipedia.org/wiki/Tammy_Lynn_Michaels'
p323
aS'http://en.wikipedia.org/wiki/Barbara_Lawrence'
p324
aS'http://en.wikipedia.org/wiki/Rini_Bell'
p325
aS'http://en.wikipedia.org/wiki/Sharmila_Devar'
p326
aS'http://en.wikipedia.org/wiki/Mamie_Gummer'
p327
aS'http://en.wikipedia.org/wiki/Tamela_D%27Amico'
p328
aS'http://en.wikipedia.org/wiki/Ellie_Kemper'
p329
aS'http://en.wikipedia.org/wiki/Tamala_Jones'
p330
aS'http://en.wikipedia.org/wiki/Teri_Hatcher'
p331
aS'http://en.wikipedia.org/wiki/Taylar_Hender'
p332
aS'http://en.wikipedia.org/wiki/Sofia_Karstens'
p333
aS'http://en.wikipedia.org/wiki/Jennifer_Esposito'
p334
aS'http://en.wikipedia.org/wiki/Erica_O%27Keith'
p335
aS'http://en.wikipedia.org/wiki/Shanna_Collins'
p336
aS'http://en.wikipedia.org/wiki/Peyton_List_(actress,_born_1986)'
p337
aS'http://en.wikipedia.org/wiki/Marie_McDonald'
p338
aS'http://en.wikipedia.org/wiki/Emily_Warfield'
p339
aS'http://en.wikipedia.org/wiki/Susan_Sullivan'
p340
aS'http://en.wikipedia.org/wiki/Tanjareen_Martin'
p341
aS'http://en.wikipedia.org/wiki/Maddie_Corman'
p342
aS'http://en.wikipedia.org/wiki/Leni_Stengel'
p343
aS'http://en.wikipedia.org/wiki/Trazana_Beverley'
p344
aS'http://en.wikipedia.org/wiki/Terry_Farrell_(actress)'
p345
aS'http://en.wikipedia.org/wiki/Byron_Stingily'
p346
aS'http://en.wikipedia.org/wiki/Sara_Erikson'
p347
aS'http://en.wikipedia.org/wiki/Kelli_Goss'
p348
aS'http://en.wikipedia.org/wiki/Clementine_Ford'
p349
aS'http://en.wikipedia.org/wiki/Meg_Chambers_Steedle'
p350
aS'http://en.wikipedia.org/wiki/Kim_Miyori'
p351
aS'http://en.wikipedia.org/wiki/Kirsten_Kemp'
p352
aS'http://en.wikipedia.org/wiki/Rhoda_Griffis'
p353
aS'http://en.wikipedia.org/wiki/Barbara_Bedford_(actress)'
p354
aS'http://en.wikipedia.org/wiki/Zelda_Rubinstein'
p355
aS'http://en.wikipedia.org/wiki/Lauren_Bittner'
p356
aS'http://en.wikipedia.org/wiki/Anne_Bancroft'
p357
aS'http://en.wikipedia.org/wiki/Charlene_Tilton'
p358
aS'http://en.wikipedia.org/wiki/Ashley_Tisdale'
p359
aS'http://en.wikipedia.org/wiki/Vasiliki_Maliaros'
p360
aS'http://en.wikipedia.org/wiki/Sheila_Kelley_(American_actress)'
p361
aS'http://en.wikipedia.org/wiki/Vicki_Lawrence'
p362
aS'http://en.wikipedia.org/wiki/Robert_Owens_(musician)'
p363
aS'http://en.wikipedia.org/wiki/Elizabeth_McGovern'
p364
aS'http://en.wikipedia.org/wiki/Lil_Louis'
p365
aS'http://en.wikipedia.org/wiki/Josette_Banzet'
p366
aS'http://en.wikipedia.org/wiki/Pearl_Eaton'
p367
aS'http://en.wikipedia.org/wiki/Tina_Krause'
p368
aS'http://en.wikipedia.org/wiki/Christina_Robinson_(actress)'
p369
aS'http://en.wikipedia.org/wiki/Meredith_Baxter'
p370
aS'http://en.wikipedia.org/wiki/Natalie_Alyn_Lind'
p371
aS'http://en.wikipedia.org/wiki/Sarah_Prikryl'
p372
aS'http://en.wikipedia.org/wiki/Jocelyn_Brown'
p373
aS'http://en.wikipedia.org/wiki/Conni_Marie_Brazelton'
p374
aS'http://en.wikipedia.org/wiki/Danielle_Brooks'
p375
aS'http://en.wikipedia.org/wiki/Kathryn_Noble'
p376
aS'http://en.wikipedia.org/wiki/Monique_Dupree'
p377
aS'http://en.wikipedia.org/wiki/Maura_Soden'
p378
aS'http://en.wikipedia.org/wiki/Holly_Marie_Combs'
p379
aS'http://en.wikipedia.org/wiki/Shondrella_Avery'
p380
aS'http://en.wikipedia.org/wiki/Emily_Deschanel'
p381
aS'http://en.wikipedia.org/wiki/Leila_Arcieri'
p382
aS'http://en.wikipedia.org/wiki/Bertha_Kalich'
p383
aS'http://en.wikipedia.org/wiki/Michelle_Monaghan'
p384
aS'http://en.wikipedia.org/wiki/Jewel_(singer)'
p385
aS'http://en.wikipedia.org/wiki/Kathy_Ireland'
p386
aS'http://en.wikipedia.org/wiki/Tree_Carr'
p387
aS'http://en.wikipedia.org/wiki/Morena_Baccarin'
p388
aS'http://en.wikipedia.org/wiki/Chip_Fields'
p389
aS'http://en.wikipedia.org/wiki/Hallie_Foote'
p390
aS'http://en.wikipedia.org/wiki/Lillian_Lux'
p391
aS'http://en.wikipedia.org/wiki/Kayla_Ewell'
p392
aS'http://en.wikipedia.org/wiki/Drew_Sidora'
p393
aS'http://en.wikipedia.org/wiki/Penelope_Windust'
p394
aS'http://en.wikipedia.org/wiki/Mitzi_Martin'
p395
aS'http://en.wikipedia.org/wiki/Nayo_Wallace'
p396
aS'http://en.wikipedia.org/wiki/Suzan_Brittan'
p397
aS'http://en.wikipedia.org/wiki/Asia_Carrera'
p398
aS'http://en.wikipedia.org/wiki/Kristina_Wagner'
p399
aS'http://en.wikipedia.org/wiki/Carole_Mathews'
p400
aS'http://en.wikipedia.org/wiki/Cevin_Fisher'
p401
aS'http://en.wikipedia.org/wiki/Julie_Kavner'
p402
aS'http://en.wikipedia.org/wiki/Cher'
p403
aS'http://en.wikipedia.org/wiki/Lauren_Hutton'
p404
aS'http://en.wikipedia.org/wiki/Molly_Spotted_Elk'
p405
aS'http://en.wikipedia.org/wiki/Teddy_Riley'
p406
aS'http://en.wikipedia.org/wiki/Fala_Chen'
p407
aS'http://en.wikipedia.org/wiki/Delta_Burke'
p408
aS'http://en.wikipedia.org/wiki/Samantha_Logan'
p409
aS'http://en.wikipedia.org/wiki/Sarah_Burns'
p410
aS'http://en.wikipedia.org/wiki/Mandy_Moore'
p411
aS'http://en.wikipedia.org/wiki/Farrah_Abraham'
p412
aS'http://en.wikipedia.org/wiki/Victoria_Shaw_(actress)'
p413
aS'http://en.wikipedia.org/wiki/Haley_Gibby'
p414
aS'http://en.wikipedia.org/wiki/Felicity_Huffman'
p415
aS'http://en.wikipedia.org/wiki/Daffney'
p416
aS'http://en.wikipedia.org/wiki/Ali_Hillis'
p417
aS'http://en.wikipedia.org/wiki/Samira_Wiley'
p418
aS'http://en.wikipedia.org/wiki/Joan_Shawlee'
p419
aS'http://en.wikipedia.org/wiki/Sandra_Dickinson'
p420
aS'http://en.wikipedia.org/wiki/Arielle_Jacobs'
p421
aS'http://en.wikipedia.org/wiki/Brittany_Underwood'
p422
aS'http://en.wikipedia.org/wiki/Danitza_Kingsley'
p423
aS'http://en.wikipedia.org/wiki/AzMarie_Livingston'
p424
aS'http://en.wikipedia.org/wiki/Renee_Olstead'
p425
aS'http://en.wikipedia.org/wiki/Lady_Gaga'
p426
aS'http://en.wikipedia.org/wiki/Barbra_Streisand'
p427
aS'http://en.wikipedia.org/wiki/Ariana_Richards'
p428
aS'http://en.wikipedia.org/wiki/Louise_Fletcher'
p429
aS'http://en.wikipedia.org/wiki/Joyce_Nizzari'
p430
aS'http://en.wikipedia.org/wiki/Cerina_Vincent'
p431
aS'http://en.wikipedia.org/wiki/Ruthanna_Hopper'
p432
aS'http://en.wikipedia.org/wiki/Andrea_Howard'
p433
aS'http://en.wikipedia.org/wiki/Kourtney_Kardashian'
p434
aS'http://en.wikipedia.org/wiki/Julianne_Michelle'
p435
aS'http://en.wikipedia.org/wiki/Anne_Sargent'
p436
aS'http://en.wikipedia.org/wiki/Caryl_Lincoln'
p437
aS'http://en.wikipedia.org/wiki/Julia_Sweeney'
p438
aS'http://en.wikipedia.org/wiki/Rumer_Willis'
p439
aS'http://en.wikipedia.org/wiki/Spring_Byington'
p440
aS'http://en.wikipedia.org/wiki/Sarah_Dash'
p441
aS'http://en.wikipedia.org/wiki/Lisa_Ann'
p442
aS'http://en.wikipedia.org/wiki/Kate_French'
p443
aS'http://en.wikipedia.org/wiki/Kim_Hawthorne'
p444
aS'http://en.wikipedia.org/wiki/Louise_Fazenda'
p445
aS'http://en.wikipedia.org/wiki/Margaret_Morris_(actress)'
p446
aS'http://en.wikipedia.org/wiki/Elaine_Kao'
p447
aS'http://en.wikipedia.org/wiki/Shareeka_Epps'
p448
aS'http://en.wikipedia.org/wiki/Frances_Conroy'
p449
aS'http://en.wikipedia.org/wiki/Alanis_Morissette'
p450
aS'http://en.wikipedia.org/wiki/Barbara_Bain'
p451
aS'http://en.wikipedia.org/wiki/Andrea_Bowen'
p452
aS'http://en.wikipedia.org/wiki/K_Callan'
p453
aS'http://en.wikipedia.org/wiki/Kenya_Moore'
p454
aS'http://en.wikipedia.org/wiki/Jane_Morgan'
p455
aS'http://en.wikipedia.org/wiki/David_Jude_Jolicoeur'
p456
aS'http://en.wikipedia.org/wiki/Anna_Chlumsky'
p457
aS'http://en.wikipedia.org/wiki/Jillian_Reynolds'
p458
aS'http://en.wikipedia.org/wiki/Julia_Roberts'
p459
aS'http://en.wikipedia.org/wiki/Fritzi_Brunette'
p460
aS'http://en.wikipedia.org/wiki/Takayo_Fischer'
p461
aS'http://en.wikipedia.org/wiki/Melissa_McCarthy'
p462
aS'http://en.wikipedia.org/wiki/Alexis_Thorpe'
p463
aS'http://en.wikipedia.org/wiki/Frances_Dee'
p464
aS'http://en.wikipedia.org/wiki/Amy_Halloran'
p465
aS'http://en.wikipedia.org/wiki/Erin_Lear'
p466
aS'http://en.wikipedia.org/wiki/Eileen_Herlie'
p467
aS'http://en.wikipedia.org/wiki/Andrea_Savage'
p468
aS'http://en.wikipedia.org/wiki/Lisa_Michaelis'
p469
aS'http://en.wikipedia.org/wiki/Brittney_Alger'
p470
aS'http://en.wikipedia.org/wiki/Sprague_Grayden'
p471
aS'http://en.wikipedia.org/wiki/Yvonne_Craig'
p472
aS'http://en.wikipedia.org/wiki/Melody_Kay'
p473
aS'http://en.wikipedia.org/wiki/Candis_Cayne'
p474
aS'http://en.wikipedia.org/wiki/Jackie_Evancho'
p475
aS'http://en.wikipedia.org/wiki/Molly_Sims'
p476
aS'http://en.wikipedia.org/wiki/Edith_Luckett_Davis'
p477
aS'http://en.wikipedia.org/wiki/Sally_Mayes'
p478
aS'http://en.wikipedia.org/wiki/Pablo_Flores'
p479
aS'http://en.wikipedia.org/wiki/Destiny_Lightsy'
p480
aS'http://en.wikipedia.org/wiki/Greta_Gerwig'
p481
aS'http://en.wikipedia.org/wiki/Mary_Pat_Gleason'
p482
aS'http://en.wikipedia.org/wiki/Ruth_Hart'
p483
aS'http://en.wikipedia.org/wiki/DJ_Ricardo!'
p484
aS'http://en.wikipedia.org/wiki/Charis_Michelsen'
p485
aS'http://en.wikipedia.org/wiki/Patience_Cleveland'
p486
aS'http://en.wikipedia.org/wiki/Mary_Badham'
p487
aS'http://en.wikipedia.org/wiki/Colleen_Shannon'
p488
aS'http://en.wikipedia.org/wiki/Bella_Thorne'
p489
aS'http://en.wikipedia.org/wiki/Patricia_Neal'
p490
aS'http://en.wikipedia.org/wiki/Lorraine_Nicholson'
p491
aS'http://en.wikipedia.org/wiki/Alexis_Dziena'
p492
aS'http://en.wikipedia.org/wiki/Janel_Parrish'
p493
aS'http://en.wikipedia.org/wiki/Lindsay_Pulsipher'
p494
aS'http://en.wikipedia.org/wiki/Kimberly_Wyatt'
p495
aS'http://en.wikipedia.org/wiki/Amy_Jo_Johnson'
p496
aS'http://en.wikipedia.org/wiki/Victor_Calderone'
p497
aS'http://en.wikipedia.org/wiki/Jane_Novak'
p498
aS'http://en.wikipedia.org/wiki/Kerissa_Fare'
p499
aS'http://en.wikipedia.org/wiki/Niecy_Nash'
p500
aS'http://en.wikipedia.org/wiki/Michele_Greene'
p501
aS'http://en.wikipedia.org/wiki/Amy_Irving'
p502
aS'http://en.wikipedia.org/wiki/Mireille_Enos'
p503
aS'http://en.wikipedia.org/wiki/Edwina_Booth'
p504
aS'http://en.wikipedia.org/wiki/Cody_Horn'
p505
aS'http://en.wikipedia.org/wiki/Summer_Phoenix'
p506
aS'http://en.wikipedia.org/wiki/Sharon_Farrell'
p507
aS'http://en.wikipedia.org/wiki/Adrienne_Shelly'
p508
aS'http://en.wikipedia.org/wiki/Jennifer_Holt'
p509
aS'http://en.wikipedia.org/wiki/Kim_Raver'
p510
aS'http://en.wikipedia.org/wiki/Ann-Margret'
p511
aS'http://en.wikipedia.org/wiki/Hillary_Tuck'
p512
aS'http://en.wikipedia.org/wiki/Olivia_Wilde'
p513
aS'http://en.wikipedia.org/wiki/Cynthia_Stevenson'
p514
aS'http://en.wikipedia.org/wiki/Leslie-Anne_Huff'
p515
aS'http://en.wikipedia.org/wiki/Neva_Gerber'
p516
aS'http://en.wikipedia.org/wiki/Barbara_Barrie'
p517
aS'http://en.wikipedia.org/wiki/Betty_Bronson'
p518
aS'http://en.wikipedia.org/wiki/Victoria_Dillard'
p519
aS'http://en.wikipedia.org/wiki/Margo_Woode'
p520
aS'http://en.wikipedia.org/wiki/Carlotta_Monti'
p521
aS'http://en.wikipedia.org/wiki/Michaela_Watkins'
p522
aS'http://en.wikipedia.org/wiki/Agnes_Steele'
p523
aS'http://en.wikipedia.org/wiki/Lorna_Luft'
p524
aS'http://en.wikipedia.org/wiki/Veanne_Cox'
p525
aS'http://en.wikipedia.org/wiki/Elle_Fanning'
p526
aS'http://en.wikipedia.org/wiki/Gilda_Gray'
p527
aS'http://en.wikipedia.org/wiki/Hope_Lange'
p528
aS'http://en.wikipedia.org/wiki/Riley_Keough'
p529
aS'http://en.wikipedia.org/wiki/Suzanne_Friedline'
p530
aS'http://en.wikipedia.org/wiki/Terry_Finn'
p531
aS'http://en.wikipedia.org/wiki/Grace_Fulton'
p532
aS'http://en.wikipedia.org/wiki/Lynne_Roberts'
p533
aS'http://en.wikipedia.org/wiki/Constance_Bennett'
p534
aS'http://en.wikipedia.org/wiki/Nicole_Garza'
p535
aS'http://en.wikipedia.org/wiki/Cara_Mia_Wayans'
p536
aS'http://en.wikipedia.org/wiki/Claire_Danes'
p537
aS'http://en.wikipedia.org/wiki/Cheryl_Miller_(actress)'
p538
aS'http://en.wikipedia.org/wiki/Laurel_Page'
p539
aS'http://en.wikipedia.org/wiki/Iva_Shepard'
p540
aS'http://en.wikipedia.org/wiki/Alisa_Reyes'
p541
aS'http://en.wikipedia.org/wiki/Melissa_Fitzgerald'
p542
aS'http://en.wikipedia.org/wiki/Nina_Arianda'
p543
aS'http://en.wikipedia.org/wiki/Elizabeth_Marvel'
p544
aS'http://en.wikipedia.org/wiki/Frances_Raines'
p545
aS'http://en.wikipedia.org/wiki/Amanda_Righetti'
p546
aS'http://en.wikipedia.org/wiki/Shawnee_Smith'
p547
aS'http://en.wikipedia.org/wiki/Jill_Whelan'
p548
aS'http://en.wikipedia.org/wiki/Amelia_Campbell'
p549
aS'http://en.wikipedia.org/wiki/Madylin_Sweeten'
p550
aS'http://en.wikipedia.org/wiki/Eleanor_(singer)'
p551
aS'http://en.wikipedia.org/wiki/Priscilla_Dean'
p552
aS'http://en.wikipedia.org/wiki/Chelsea_Field'
p553
aS'http://en.wikipedia.org/wiki/Linda_Lavin'
p554
aS'http://en.wikipedia.org/wiki/Elinor_Donahue'
p555
aS'http://en.wikipedia.org/wiki/Natalie_Cole'
p556
aS'http://en.wikipedia.org/wiki/Valerie_Harper'
p557
aS'http://en.wikipedia.org/wiki/Ellary_Porterfield'
p558
aS'http://en.wikipedia.org/wiki/Kirsten_Dunst'
p559
aS'http://en.wikipedia.org/wiki/Jean_Carne'
p560
aS'http://en.wikipedia.org/wiki/Amanda_Seyfried'
p561
aS'http://en.wikipedia.org/wiki/Mimi_Michaels'
p562
aS'http://en.wikipedia.org/wiki/Stefanie_Powers'
p563
aS'http://en.wikipedia.org/wiki/Catherine_Keener'
p564
aS'http://en.wikipedia.org/wiki/Amber_Stevens'
p565
aS'http://en.wikipedia.org/wiki/Kate_Flannery'
p566
aS'http://en.wikipedia.org/wiki/Tara_Correa-McMullen'
p567
aS'http://en.wikipedia.org/wiki/Sara_Niemietz'
p568
aS'http://en.wikipedia.org/wiki/Tiffany_Thornton'
p569
aS'http://en.wikipedia.org/wiki/Jane_Seymour_(Canadian_actress)'
p570
aS'http://en.wikipedia.org/wiki/Mariska_Hargitay'
p571
aS'http://en.wikipedia.org/wiki/Abbie_Cobb'
p572
aS'http://en.wikipedia.org/wiki/Nikki_Griffin'
p573
aS'http://en.wikipedia.org/wiki/Felipe_Rose'
p574
aS'http://en.wikipedia.org/wiki/Maggie_McNamara'
p575
aS'http://en.wikipedia.org/wiki/Carrie_Fisher'
p576
aS'http://en.wikipedia.org/wiki/Evelyn_Rudie'
p577
aS'http://en.wikipedia.org/wiki/Mackenzie_Smith'
p578
aS'http://en.wikipedia.org/wiki/Lisa_LoCicero'
p579
aS'http://en.wikipedia.org/wiki/Demi_Moore'
p580
aS'http://en.wikipedia.org/wiki/Ma%27Niche'
p581
aS'http://en.wikipedia.org/wiki/Patricia_Clarkson'
p582
aS'http://en.wikipedia.org/wiki/Lissa_Lauria'
p583
aS'http://en.wikipedia.org/wiki/Meryl_Streep'
p584
aS'http://en.wikipedia.org/wiki/Jodie_Sweetin'
p585
aS'http://en.wikipedia.org/wiki/Jolee_Blon%27'
p586
aS'http://en.wikipedia.org/wiki/Lindsay_Sloane'
p587
aS'http://en.wikipedia.org/wiki/Janet_Carroll'
p588
aS'http://en.wikipedia.org/wiki/Karen_McDougal'
p589
aS'http://en.wikipedia.org/wiki/Carol_Kane'
p590
aS'http://en.wikipedia.org/wiki/Taryn_Manning'
p591
aS'http://en.wikipedia.org/wiki/Carmel_Myers'
p592
aS'http://en.wikipedia.org/wiki/Christina_Aguilera'
p593
aS'http://en.wikipedia.org/wiki/Hailey_Anne_Nelson'
p594
aS'http://en.wikipedia.org/wiki/Joan_Hotchkis'
p595
aS'http://en.wikipedia.org/wiki/Claire_Engler'
p596
aS'http://en.wikipedia.org/wiki/Kelly_Bishop'
p597
aS'http://en.wikipedia.org/wiki/Joyce_Van_Patten'
p598
aS'http://en.wikipedia.org/wiki/Brittany_Snow'
p599
aS'http://en.wikipedia.org/wiki/Lili_Simmons'
p600
aS'http://en.wikipedia.org/wiki/Phyllis_Frelich'
p601
aS'http://en.wikipedia.org/wiki/Amy_Poehler'
p602
aS'http://en.wikipedia.org/wiki/Theresa_Russell'
p603
aS'http://en.wikipedia.org/wiki/Amber_Lynn'
p604
aS'http://en.wikipedia.org/wiki/Melissa_Ponzio'
p605
aS'http://en.wikipedia.org/wiki/Ann_Magnuson'
p606
aS'http://en.wikipedia.org/wiki/Dana_Delany'
p607
aS'http://en.wikipedia.org/wiki/Jaime_Pressly'
p608
aS'http://en.wikipedia.org/wiki/Bitsie_Tulloch'
p609
aS'http://en.wikipedia.org/wiki/Hope_Summers'
p610
aS'http://en.wikipedia.org/wiki/Brett_Butler_(actress)'
p611
aS'http://en.wikipedia.org/wiki/Bree_Turner'
p612
aS'http://en.wikipedia.org/wiki/Teri_Shields'
p613
aS'http://en.wikipedia.org/wiki/Karyn_White'
p614
aS'http://en.wikipedia.org/wiki/Jennifer_Tisdale'
p615
aS'http://en.wikipedia.org/wiki/Teresa_Ruiz_(actress)'
p616
aS'http://en.wikipedia.org/wiki/Kristen_Ruhlin'
p617
aS'http://en.wikipedia.org/wiki/Frances_Rich'
p618
aS'http://en.wikipedia.org/wiki/Laverne_Cox'
p619
aS'http://en.wikipedia.org/wiki/Allyn_Rachel'
p620
aS'http://en.wikipedia.org/wiki/Tanaya_Henry'
p621
aS'http://en.wikipedia.org/wiki/Fiona_Hogan'
p622
aS'http://en.wikipedia.org/wiki/Miranda_Cosgrove'
p623
aS'http://en.wikipedia.org/wiki/Alice_Nunn'
p624
aS'http://en.wikipedia.org/wiki/Christina_Vidal'
p625
aS'http://en.wikipedia.org/wiki/Summer_Bishil'
p626
aS'http://en.wikipedia.org/wiki/Lynn_Carlin'
p627
aS'http://en.wikipedia.org/wiki/Gloria_Stuart'
p628
aS'http://en.wikipedia.org/wiki/Sundance_(rapper)'
p629
aS'http://en.wikipedia.org/wiki/Ellen_Albertini_Dow'
p630
aS'http://en.wikipedia.org/wiki/Estelle_Evans'
p631
aS'http://en.wikipedia.org/wiki/Stacey_Dash'
p632
aS'http://en.wikipedia.org/wiki/Tina_Chen'
p633
aS'http://en.wikipedia.org/wiki/Marlowe_Peyton'
p634
aS'http://en.wikipedia.org/wiki/Tracy_Hutson'
p635
aS'http://en.wikipedia.org/wiki/Stefania_Barr'
p636
aS'http://en.wikipedia.org/wiki/Mary_Tyler_Moore'
p637
aS'http://en.wikipedia.org/wiki/Madison_Davenport'
p638
aS'http://en.wikipedia.org/wiki/Melissa_Tang'
p639
aS'http://en.wikipedia.org/wiki/Patricia_Kalember'
p640
aS'http://en.wikipedia.org/wiki/Marion_Mack'
p641
aS'http://en.wikipedia.org/wiki/Jane_Alexander'
p642
aS'http://en.wikipedia.org/wiki/Robert_Hood'
p643
aS'http://en.wikipedia.org/wiki/Tristine_Skyler'
p644
aS'http://en.wikipedia.org/wiki/Janet_Jackson'
p645
aS'http://en.wikipedia.org/wiki/Sarah_Hagan'
p646
aS'http://en.wikipedia.org/wiki/Monica_Calhoun'
p647
aS'http://en.wikipedia.org/wiki/Bianca_Lawson'
p648
aS'http://en.wikipedia.org/wiki/Laura_Koffman'
p649
aS'http://en.wikipedia.org/wiki/Susan_Morrow'
p650
aS'http://en.wikipedia.org/wiki/Staci_Keanan'
p651
aS'http://en.wikipedia.org/wiki/Katherine_Bailess'
p652
aS'http://en.wikipedia.org/wiki/Courtney_Ford'
p653
aS'http://en.wikipedia.org/wiki/Mary_Stuart_Masterson'
p654
aS'http://en.wikipedia.org/wiki/Lindsay_Frost'
p655
aS'http://en.wikipedia.org/wiki/Evelyn_%22Champagne%22_King'
p656
aS'http://en.wikipedia.org/wiki/Maxine_Stuart'
p657
aS'http://en.wikipedia.org/wiki/Ren%C3%A9e_Taylor'
p658
aS'http://en.wikipedia.org/wiki/Erin_Cummings'
p659
aS'http://en.wikipedia.org/wiki/Kat_Coiro'
p660
aS'http://en.wikipedia.org/wiki/Chris_Crocker'
p661
aS'http://en.wikipedia.org/wiki/Jean_Howard'
p662
aS'http://en.wikipedia.org/wiki/Gladys_McConnell'
p663
aS'http://en.wikipedia.org/wiki/Suzanna_Love'
p664
aS'http://en.wikipedia.org/wiki/Rosalie_Ward'
p665
aS'http://en.wikipedia.org/wiki/Kimberly_Hester'
p666
aS'http://en.wikipedia.org/wiki/Dorothy_Hyson'
p667
aS'http://en.wikipedia.org/wiki/Courtney_Love'
p668
aS'http://en.wikipedia.org/wiki/Alexandria_Karlsen'
p669
aS'http://en.wikipedia.org/wiki/Bellamy_Young'
p670
aS'http://en.wikipedia.org/wiki/Jessica_Capshaw'
p671
aS'http://en.wikipedia.org/wiki/Phyllis_Diller'
p672
aS'http://en.wikipedia.org/wiki/Frances_Howard_(actress)'
p673
aS'http://en.wikipedia.org/wiki/Moira_Harris'
p674
aS'http://en.wikipedia.org/wiki/Cathy_Cavadini'
p675
aS'http://en.wikipedia.org/wiki/Collette_Wolfe'
p676
aS'http://en.wikipedia.org/wiki/Dyan_Cannon'
p677
aS'http://en.wikipedia.org/wiki/M%C3%BDa'
p678
aS'http://en.wikipedia.org/wiki/Tika_Sumpter'
p679
aS'http://en.wikipedia.org/wiki/Belinda_Carlisle'
p680
aS'http://en.wikipedia.org/wiki/Anna_Faris'
p681
aS'http://en.wikipedia.org/wiki/Kim_Wayans'
p682
aS'http://en.wikipedia.org/wiki/Jenny_Slate'
p683
aS'http://en.wikipedia.org/wiki/Paul_Parker_(singer)'
p684
aS'http://en.wikipedia.org/wiki/Inez_Palange'
p685
aS'http://en.wikipedia.org/wiki/Sue_Lyon'
p686
aS'http://en.wikipedia.org/wiki/Erinn_Hayes'
p687
aS'http://en.wikipedia.org/wiki/Courtney_Halverson'
p688
aS'http://en.wikipedia.org/wiki/Crystal_Celeste_Grant'
p689
aS'http://en.wikipedia.org/wiki/Monica_Potter'
p690
aS'http://en.wikipedia.org/wiki/Jill_Dennett'
p691
aS'http://en.wikipedia.org/wiki/Lea_Michele'
p692
aS'http://en.wikipedia.org/wiki/Pamela_Anderson'
p693
aS'http://en.wikipedia.org/wiki/Regina_Taylor'
p694
aS'http://en.wikipedia.org/wiki/Cindy_Crawford'
p695
aS'http://en.wikipedia.org/wiki/Pepper_Binkley'
p696
aS'http://en.wikipedia.org/wiki/Marilyn_Martinez'
p697
aS'http://en.wikipedia.org/wiki/Lindsay_Parker'
p698
aS'http://en.wikipedia.org/wiki/Tracey_Birdsall-Smith'
p699
aS'http://en.wikipedia.org/wiki/Willow_Smith'
p700
aS'http://en.wikipedia.org/wiki/Lydia_Cornell'
p701
aS'http://en.wikipedia.org/wiki/Kelsey_Chow'
p702
aS'http://en.wikipedia.org/wiki/Robia_LaMorte'
p703
aS'http://en.wikipedia.org/wiki/Poni_Adams'
p704
aS'http://en.wikipedia.org/wiki/Gloria_Foster'
p705
aS'http://en.wikipedia.org/wiki/Lana_Clarkson'
p706
aS'http://en.wikipedia.org/wiki/Rooney_Mara'
p707
aS'http://en.wikipedia.org/wiki/Daphne_Rubin-Vega'
p708
aS'http://en.wikipedia.org/wiki/Rosa_Salazar'
p709
aS'http://en.wikipedia.org/wiki/Carol_Burnett'
p710
aS'http://en.wikipedia.org/wiki/Laura_La_Plante'
p711
aS'http://en.wikipedia.org/wiki/Melissa_Sue_Anderson'
p712
aS'http://en.wikipedia.org/wiki/Helen_Shipman'
p713
aS'http://en.wikipedia.org/wiki/Sasha_Pieterse'
p714
aS'http://en.wikipedia.org/wiki/John_Benitez'
p715
aS'http://en.wikipedia.org/wiki/Debrah_Farentino'
p716
aS'http://en.wikipedia.org/wiki/Lizzy_Caplan'
p717
aS'http://en.wikipedia.org/wiki/Jennifer_Syme'
p718
aS'http://en.wikipedia.org/wiki/Lauren_Jelencovich'
p719
aS'http://en.wikipedia.org/wiki/Lindsay_Felton'
p720
aS'http://en.wikipedia.org/wiki/Kitty_Carlisle'
p721
aS'http://en.wikipedia.org/wiki/Laraine_Day'
p722
aS'http://en.wikipedia.org/wiki/Gloria_Lloyd'
p723
aS'http://en.wikipedia.org/wiki/Mae_Marsh'
p724
aS'http://en.wikipedia.org/wiki/Louanne_Sirota'
p725
aS'http://en.wikipedia.org/wiki/Gina_Gershon'
p726
aS'http://en.wikipedia.org/wiki/Brooke_Burns'
p727
aS'http://en.wikipedia.org/wiki/Kaleena_Kiff'
p728
aS'http://en.wikipedia.org/wiki/Justina_Machado'
p729
aS'http://en.wikipedia.org/wiki/Kyla_Pratt'
p730
aS'http://en.wikipedia.org/wiki/Christine_Ebersole'
p731
aS'http://en.wikipedia.org/wiki/Erica_McDermott'
p732
aS'http://en.wikipedia.org/wiki/Nadia_Bjorlin'
p733
aS'http://en.wikipedia.org/wiki/Kathryn_Kates'
p734
aS'http://en.wikipedia.org/wiki/Elise_Cavanna'
p735
aS'http://en.wikipedia.org/wiki/Ruth_Terry'
p736
aS'http://en.wikipedia.org/wiki/Margalo_Gillmore'
p737
aS'http://en.wikipedia.org/wiki/Joanna_Stingray'
p738
aS'http://en.wikipedia.org/wiki/Whitney_Cummings'
p739
aS'http://en.wikipedia.org/wiki/Diahann_Carroll'
p740
aS'http://en.wikipedia.org/wiki/Nile_Rodgers'
p741
aS'http://en.wikipedia.org/wiki/Irene_Ng'
p742
aS'http://en.wikipedia.org/wiki/Connie_Romano'
p743
aS'http://en.wikipedia.org/wiki/Lori_Beth_Denberg'
p744
aS'http://en.wikipedia.org/wiki/Rosamond_Pinchot'
p745
aS'http://en.wikipedia.org/wiki/Caitlin_Crosby'
p746
aS'http://en.wikipedia.org/wiki/Linda_Blair'
p747
aS'http://en.wikipedia.org/wiki/Caprice_Benedetti'
p748
aS'http://en.wikipedia.org/wiki/Cheryl_Ladd'
p749
aS'http://en.wikipedia.org/wiki/Bobby_Edner'
p750
aS'http://en.wikipedia.org/wiki/Lisa_Guerrero'
p751
aS'http://en.wikipedia.org/wiki/Darryl_D%27Bonneau'
p752
aS'http://en.wikipedia.org/wiki/Susan_Ruttan'
p753
aS'http://en.wikipedia.org/wiki/Lauren_Walsh'
p754
aS'http://en.wikipedia.org/wiki/Paula_Miranda'
p755
aS'http://en.wikipedia.org/wiki/Jordan_Carver'
p756
aS'http://en.wikipedia.org/wiki/Laura_Dean_(actress)'
p757
aS'http://en.wikipedia.org/wiki/Belle_Montrose'
p758
aS'http://en.wikipedia.org/wiki/Auti_Angel'
p759
aS'http://en.wikipedia.org/wiki/Kim_Greist'
p760
aS'http://en.wikipedia.org/wiki/Cassi_Thomson'
p761
aS'http://en.wikipedia.org/wiki/Maria_Bello'
p762
aS'http://en.wikipedia.org/wiki/Anita_Louise'
p763
aS'http://en.wikipedia.org/wiki/C.J._Perry'
p764
aS'http://en.wikipedia.org/wiki/Kelly_Crean'
p765
aS'http://en.wikipedia.org/wiki/Fanny_Midgley'
p766
aS'http://en.wikipedia.org/wiki/Judy_Nugent'
p767
aS'http://en.wikipedia.org/wiki/Dey_Young'
p768
aS'http://en.wikipedia.org/wiki/Meredith_Patterson'
p769
aS'http://en.wikipedia.org/wiki/Abby_Dalton'
p770
aS'http://en.wikipedia.org/wiki/Marissa_Jaret_Winokur'
p771
aS'http://en.wikipedia.org/wiki/Lauren_Francesca'
p772
aS'http://en.wikipedia.org/wiki/Aria_Wallace'
p773
aS'http://en.wikipedia.org/wiki/Mary_Jo_Deschanel'
p774
aS'http://en.wikipedia.org/wiki/Elizabeth_Ann_Bennett'
p775
aS'http://en.wikipedia.org/wiki/Kimberly_Elise'
p776
aS'http://en.wikipedia.org/wiki/Kaitlin_Doubleday'
p777
aS'http://en.wikipedia.org/wiki/Martha_Gehman'
p778
aS'http://en.wikipedia.org/wiki/Dee_Wallace'
p779
aS'http://en.wikipedia.org/wiki/Bijou_Phillips'
p780
aS'http://en.wikipedia.org/wiki/Nika_Futterman'
p781
aS'http://en.wikipedia.org/wiki/Vanessa_Brown'
p782
aS'http://en.wikipedia.org/wiki/Angelle_Brooks'
p783
aS'http://en.wikipedia.org/wiki/Alexandra_Picatto'
p784
aS'http://en.wikipedia.org/wiki/Laura_Harring'
p785
aS'http://en.wikipedia.org/wiki/Carole_Cook'
p786
aS'http://en.wikipedia.org/wiki/Megan_Ketch'
p787
aS'http://en.wikipedia.org/wiki/Reba_McEntire'
p788
aS'http://en.wikipedia.org/wiki/Wanda_Sykes'
p789
aS'http://en.wikipedia.org/wiki/Billie_Seward'
p790
aS'http://en.wikipedia.org/wiki/Rose_McGowan'
p791
aS'http://en.wikipedia.org/wiki/Cindy_Cheung_(actress)'
p792
aS'http://en.wikipedia.org/wiki/Colleen_Camp'
p793
aS'http://en.wikipedia.org/wiki/Rose_Marie'
p794
aS'http://en.wikipedia.org/wiki/Walter_Kahn'
p795
aS'http://en.wikipedia.org/wiki/Dot_Jones'
p796
aS'http://en.wikipedia.org/wiki/Elizabeth_Allen_(actress)'
p797
aS'http://en.wikipedia.org/wiki/Libby_Holman'
p798
aS'http://en.wikipedia.org/wiki/Ilene_Graff'
p799
aS'http://en.wikipedia.org/wiki/Glesca_Marshall'
p800
aS'http://en.wikipedia.org/wiki/Shannen_Doherty'
p801
aS'http://en.wikipedia.org/wiki/Danielle_Hoover'
p802
aS'http://en.wikipedia.org/wiki/Beau_Garrett'
p803
aS'http://en.wikipedia.org/wiki/Yvonne_Perry'
p804
aS'http://en.wikipedia.org/wiki/Tamara_Jenkins'
p805
aS'http://en.wikipedia.org/wiki/Concetta_Tomei'
p806
aS'http://en.wikipedia.org/wiki/Meghan_Markle'
p807
aS'http://en.wikipedia.org/wiki/Kate_Mara'
p808
aS'http://en.wikipedia.org/wiki/Melanie_Kannokada'
p809
aS'http://en.wikipedia.org/wiki/Stephanie_Beatriz'
p810
aS'http://en.wikipedia.org/wiki/Debbie_Gravitte'
p811
aS'http://en.wikipedia.org/wiki/Bebe_Neuwirth'
p812
aS'http://en.wikipedia.org/wiki/Sarah_Holcomb'
p813
aS'http://en.wikipedia.org/wiki/Blanche_Baker'
p814
aS'http://en.wikipedia.org/wiki/Keedy'
p815
aS'http://en.wikipedia.org/wiki/Jane_A._Rogers'
p816
aS'http://en.wikipedia.org/wiki/Skyler_Samuels'
p817
aS'http://en.wikipedia.org/wiki/Vanessa_Marano'
p818
aS'http://en.wikipedia.org/wiki/KaDee_Strickland'
p819
aS'http://en.wikipedia.org/wiki/Brinke_Stevens'
p820
aS'http://en.wikipedia.org/wiki/Beverley_Mitchell'
p821
aS'http://en.wikipedia.org/wiki/Darlene_Conley'
p822
aS'http://en.wikipedia.org/wiki/Charisma_Carpenter'
p823
aS'http://en.wikipedia.org/wiki/Lois_Austin'
p824
aS'http://en.wikipedia.org/wiki/Lucille_Ward'
p825
aS'http://en.wikipedia.org/wiki/Dorothy_Tree'
p826
aS'http://en.wikipedia.org/wiki/Diane_Guerrero'
p827
aS'http://en.wikipedia.org/wiki/Regina_King'
p828
aS'http://en.wikipedia.org/wiki/Cheryl_Hines'
p829
aS'http://en.wikipedia.org/wiki/Kate_Murtagh'
p830
aS'http://en.wikipedia.org/wiki/Gracie_Bea_Lawrence'
p831
aS'http://en.wikipedia.org/wiki/Kellee'
p832
aS'http://en.wikipedia.org/wiki/Cold_Blank'
p833
aS'http://en.wikipedia.org/wiki/Lauren_Bacall'
p834
aS'http://en.wikipedia.org/wiki/Olive_Carey'
p835
aS'http://en.wikipedia.org/wiki/Adele_Farrington'
p836
aS'http://en.wikipedia.org/wiki/Tia_Mowry'
p837
aS'http://en.wikipedia.org/wiki/Gwyneth_Paltrow'
p838
aS'http://en.wikipedia.org/wiki/Selenis_Leyva'
p839
aS'http://en.wikipedia.org/wiki/Kathryn_Layng'
p840
aS'http://en.wikipedia.org/wiki/Judith_Barrett'
p841
aS'http://en.wikipedia.org/wiki/Billie_Bennett'
p842
aS'http://en.wikipedia.org/wiki/April_Parker_Jones'
p843
aS'http://en.wikipedia.org/wiki/Dale_Fuller_(actress)'
p844
aS'http://en.wikipedia.org/wiki/Alaina_Reed_Hall'
p845
aS'http://en.wikipedia.org/wiki/Kathryn_Graf'
p846
aS'http://en.wikipedia.org/wiki/Vicki_Lewis'
p847
aS'http://en.wikipedia.org/wiki/Davetta_Sherwood'
p848
aS'http://en.wikipedia.org/wiki/Vitamin_C_(singer)'
p849
aS'http://en.wikipedia.org/wiki/Jamie_Lee_Curtis'
p850
aS'http://en.wikipedia.org/wiki/Mandy_Rain'
p851
aS'http://en.wikipedia.org/wiki/Lillian_Leighton'
p852
aS'http://en.wikipedia.org/wiki/Lindsay_Lohan'
p853
aS'http://en.wikipedia.org/wiki/Marianne_Leone_Cooper'
p854
aS'http://en.wikipedia.org/wiki/Megan_Ward'
p855
aS'http://en.wikipedia.org/wiki/Diane_Baker'
p856
aS'http://en.wikipedia.org/wiki/Paola_Andino'
p857
aS'http://en.wikipedia.org/wiki/Ynez_Seabury'
p858
aS'http://en.wikipedia.org/wiki/Olivia_Hack'
p859
aS'http://en.wikipedia.org/wiki/Elle_Madison'
p860
aS'http://en.wikipedia.org/wiki/Sandahl_Bergman'
p861
aS'http://en.wikipedia.org/wiki/Alicia_Silverstone'
p862
aS'http://en.wikipedia.org/wiki/Jill_Clayburgh'
p863
aS'http://en.wikipedia.org/wiki/Kay_Heberle'
p864
aS'http://en.wikipedia.org/wiki/Bethany_Anne_Lind'
p865
aS'http://en.wikipedia.org/wiki/Loraine_V%C3%A9lez'
p866
aS'http://en.wikipedia.org/wiki/Cheryl_Barnes'
p867
aS'http://en.wikipedia.org/wiki/AnnaSophia_Robb'
p868
aS'http://en.wikipedia.org/wiki/Heather_Burns'
p869
aS'http://en.wikipedia.org/wiki/Sally_Kirkland'
p870
aS'http://en.wikipedia.org/wiki/Blake_Lindsley'
p871
aS'http://en.wikipedia.org/wiki/Tami_Stronach'
p872
aS'http://en.wikipedia.org/wiki/Amy_Seimetz'
p873
aS'http://en.wikipedia.org/wiki/Gabrielle_Carteris'
p874
aS'http://en.wikipedia.org/wiki/Christina_Kirk'
p875
aS'http://en.wikipedia.org/wiki/Jennifer_Freeman'
p876
aS'http://en.wikipedia.org/wiki/Megan_Dodds'
p877
aS'http://en.wikipedia.org/wiki/Miriam_Flynn'
p878
aS'http://en.wikipedia.org/wiki/Logan_Browning'
p879
aS'http://en.wikipedia.org/wiki/Alicia_Minshew'
p880
aS'http://en.wikipedia.org/wiki/Kelly_Stables'
p881
aS'http://en.wikipedia.org/wiki/Jill_Eikenberry'
p882
aS'http://en.wikipedia.org/wiki/Katherine_Heigl'
p883
aS'http://en.wikipedia.org/wiki/Sarah_Jones_(screen_actress)'
p884
aS'http://en.wikipedia.org/wiki/Louise_Stanley'
p885
aS'http://en.wikipedia.org/wiki/Jane_Lynch'
p886
aS'http://en.wikipedia.org/wiki/Diane_McBain'
p887
aS'http://en.wikipedia.org/wiki/Cloris_Leachman'
p888
aS'http://en.wikipedia.org/wiki/Donna_D%27Errico'
p889
aS'http://en.wikipedia.org/wiki/Rosario_Dawson'
p890
aS'http://en.wikipedia.org/wiki/Sara_Tanaka'
p891
aS'http://en.wikipedia.org/wiki/Kim_Dickens'
p892
aS'http://en.wikipedia.org/wiki/Stephanie_Mills'
p893
aS'http://en.wikipedia.org/wiki/Fran_Drescher'
p894
aS'http://en.wikipedia.org/wiki/Mary_Steenburgen'
p895
aS'http://en.wikipedia.org/wiki/Kim_Ostrenko'
p896
aS'http://en.wikipedia.org/wiki/Poppy_Montgomery'
p897
aS'http://en.wikipedia.org/wiki/Lola_Glaudini'
p898
aS'http://en.wikipedia.org/wiki/Heather_Ankeny'
p899
aS'http://en.wikipedia.org/wiki/Alexandra_Holden'
p900
aS'http://en.wikipedia.org/wiki/Susan_Seaforth_Hayes'
p901
aS'http://en.wikipedia.org/wiki/Kathy_Griffin'
p902
aS'http://en.wikipedia.org/wiki/Ann_Blyth'
p903
aS'http://en.wikipedia.org/wiki/Sunny_Harnett'
p904
aS'http://en.wikipedia.org/wiki/Lee_Grant'
p905
aS'http://en.wikipedia.org/wiki/Michelle_Forbes'
p906
aS'http://en.wikipedia.org/wiki/Mary_Pickford'
p907
aS'http://en.wikipedia.org/wiki/Bunny_Gibson'
p908
aS'http://en.wikipedia.org/wiki/Bonnie_Hunt'
p909
aS'http://en.wikipedia.org/wiki/Courtney_Thorne-Smith'
p910
aS'http://en.wikipedia.org/wiki/Heather_Matarazzo'
p911
aS'http://en.wikipedia.org/wiki/Isabelle_Fuhrman'
p912
aS'http://en.wikipedia.org/wiki/Elaine_Barrie'
p913
aS'http://en.wikipedia.org/wiki/Wanda_De_Jesus'
p914
aS'http://en.wikipedia.org/wiki/Molly_Picon'
p915
aS'http://en.wikipedia.org/wiki/Marilyn_Chambers'
p916
aS'http://en.wikipedia.org/wiki/Kiersey_Clemons'
p917
aS'http://en.wikipedia.org/wiki/Christine_Healy'
p918
aS'http://en.wikipedia.org/wiki/Veronica_Porsche_Ali'
p919
aS'http://en.wikipedia.org/wiki/Jessica_Szohr'
p920
aS'http://en.wikipedia.org/wiki/Lisa_Wilcox'
p921
aS'http://en.wikipedia.org/wiki/Lance_Jordan'
p922
aS'http://en.wikipedia.org/wiki/Kaitlin_Olson'
p923
aS'http://en.wikipedia.org/wiki/Sofia_Black_D%27Elia'
p924
aS'http://en.wikipedia.org/wiki/Molly_Burnett'
p925
aS'http://en.wikipedia.org/wiki/Mary_Vivian_Pearce'
p926
aS'http://en.wikipedia.org/wiki/Ivana_Mili%C4%8Devi%C4%87'
p927
aS'http://en.wikipedia.org/wiki/Crystal_McKellar'
p928
aS'http://en.wikipedia.org/wiki/Lucy_Hale'
p929
aS'http://en.wikipedia.org/wiki/Novella_Nelson'
p930
aS'http://en.wikipedia.org/wiki/Beverley_Owen'
p931
aS'http://en.wikipedia.org/wiki/Jessica_Lu'
p932
aS'http://en.wikipedia.org/wiki/Cynthia_Harris'
p933
aS'http://en.wikipedia.org/wiki/Caroline_D%27Amore'
p934
aS'http://en.wikipedia.org/wiki/Debbie_Gibson'
p935
aS'http://en.wikipedia.org/wiki/Amy_Van_Nostrand'
p936
aS'http://en.wikipedia.org/wiki/Anna_Q._Nilsson'
p937
aS'http://en.wikipedia.org/wiki/Judith_Hoag'
p938
aS'http://en.wikipedia.org/wiki/Joey_Lauren_Adams'
p939
aS'http://en.wikipedia.org/wiki/Paula_Patton'
p940
aS'http://en.wikipedia.org/wiki/Lina_Santiago'
p941
aS'http://en.wikipedia.org/wiki/Audrey_Chapman'
p942
aS'http://en.wikipedia.org/wiki/Kelly_Vitz'
p943
aS'http://en.wikipedia.org/wiki/Jennifer_Aniston'
p944
aS'http://en.wikipedia.org/wiki/Jana_Thompson'
p945
aS'http://en.wikipedia.org/wiki/Calista_Flockhart'
p946
aS'http://en.wikipedia.org/wiki/LaToya_London'
p947
aS'http://en.wikipedia.org/wiki/Susan_Dalian'
p948
aS'http://en.wikipedia.org/wiki/Julia_Rose'
p949
aS'http://en.wikipedia.org/wiki/Malese_Jow'
p950
aS'http://en.wikipedia.org/wiki/Wendy_Calio'
p951
aS'http://en.wikipedia.org/wiki/Vanessa_Marcil'
p952
aS'http://en.wikipedia.org/wiki/Jamie_Rose'
p953
aS'http://en.wikipedia.org/wiki/Constance_Shulman'
p954
aS'http://en.wikipedia.org/wiki/Eileen_Chesis'
p955
aS'http://en.wikipedia.org/wiki/Rita_Moreno'
p956
aS'http://en.wikipedia.org/wiki/Ren%C3%A9e_Estevez'
p957
aS'http://en.wikipedia.org/wiki/Tilly_Losch'
p958
aS'http://en.wikipedia.org/wiki/Jennifer_Ehle'
p959
aS'http://en.wikipedia.org/wiki/Jennifer_Gatti'
p960
aS'http://en.wikipedia.org/wiki/Jennifer_Carpenter'
p961
aS'http://en.wikipedia.org/wiki/Cherami_Leigh'
p962
aS'http://en.wikipedia.org/wiki/Dolores_Duffy'
p963
aS'http://en.wikipedia.org/wiki/Kieu_Chinh'
p964
aS'http://en.wikipedia.org/wiki/Stacie_Chan'
p965
aS'http://en.wikipedia.org/wiki/Natasha_Yi'
p966
aS'http://en.wikipedia.org/wiki/Brianna_Brown'
p967
aS'http://en.wikipedia.org/wiki/Cierra_Ramirez'
p968
aS'http://en.wikipedia.org/wiki/Taylor_Atelian'
p969
aS'http://en.wikipedia.org/wiki/Alexandra_Cheron'
p970
aS'http://en.wikipedia.org/wiki/Louise_Caire_Clark'
p971
aS'http://en.wikipedia.org/wiki/Emily_Meade'
p972
aS'http://en.wikipedia.org/wiki/Emily_Evan_Rae'
p973
aS'http://en.wikipedia.org/wiki/Maggie_Wheeler'
p974
aS'http://en.wikipedia.org/wiki/Vivien_Cardone'
p975
aS'http://en.wikipedia.org/wiki/Rose_Abdoo'
p976
aS'http://en.wikipedia.org/wiki/Abigail_Breslin'
p977
aS'http://en.wikipedia.org/wiki/Penny_Drake'
p978
aS'http://en.wikipedia.org/wiki/Alice_Lake'
p979
aS'http://en.wikipedia.org/wiki/Charmaine_(musician)'
p980
aS'http://en.wikipedia.org/wiki/Bibbe_Hansen'
p981
aS'http://en.wikipedia.org/wiki/Fairuza_Balk'
p982
aS'http://en.wikipedia.org/wiki/Sosie_Bacon'
p983
aS'http://en.wikipedia.org/wiki/Ali_Wong'
p984
aS'http://en.wikipedia.org/wiki/Sharon_Case'
p985
aS'http://en.wikipedia.org/wiki/Venaccio'
p986
aS'http://en.wikipedia.org/wiki/Deborah_Tucker'
p987
aS'http://en.wikipedia.org/wiki/Carmen_Serano'
p988
aS'http://en.wikipedia.org/wiki/Nancy_Criss'
p989
aS'http://en.wikipedia.org/wiki/Paige_Turco'
p990
aS'http://en.wikipedia.org/wiki/Anastasia_Ganias'
p991
aS'http://en.wikipedia.org/wiki/Brigid_Brannagh'
p992
aS'http://en.wikipedia.org/wiki/Tracy_Nelson_(actress)'
p993
aS'http://en.wikipedia.org/wiki/Debra_Laws'
p994
aS'http://en.wikipedia.org/wiki/Storm_Queen_(musician)'
p995
aS'http://en.wikipedia.org/wiki/Lynn-Holly_Johnson'
p996
aS'http://en.wikipedia.org/wiki/Milana_Vayntrub'
p997
aS'http://en.wikipedia.org/wiki/Dana_Fuchs'
p998
aS'http://en.wikipedia.org/wiki/Elinor_Fair'
p999
aS'http://en.wikipedia.org/wiki/Molly_Price'
p1000
aS'http://en.wikipedia.org/wiki/Adrienne_Ellis'
p1001
aS'http://en.wikipedia.org/wiki/Brooke_Shields'
p1002
aS'http://en.wikipedia.org/wiki/Helen_Raymond'
p1003
aS'http://en.wikipedia.org/wiki/Peggy_McCay'
p1004
aS'http://en.wikipedia.org/wiki/Erick_Morillo'
p1005
aS'http://en.wikipedia.org/wiki/Courtnee_Draper'
p1006
aS'http://en.wikipedia.org/wiki/Meg_Wyllie'
p1007
aS'http://en.wikipedia.org/wiki/Vivi_Pineda'
p1008
aS'http://en.wikipedia.org/wiki/Kari_Nissena'
p1009
aS'http://en.wikipedia.org/wiki/Johnny_O'
p1010
aS'http://en.wikipedia.org/wiki/Eliza_Coupe'
p1011
aS'http://en.wikipedia.org/wiki/Lesley_Ann_Warren'
p1012
aS'http://en.wikipedia.org/wiki/Jon_Asher'
p1013
aS'http://en.wikipedia.org/wiki/Jodi_Thelen'
p1014
aS'http://en.wikipedia.org/wiki/Annie_Potts'
p1015
aS'http://en.wikipedia.org/wiki/Jules_de_Jongh'
p1016
aS'http://en.wikipedia.org/wiki/Rachel_True'
p1017
aS'http://en.wikipedia.org/wiki/Dove_Cameron'
p1018
aS'http://en.wikipedia.org/wiki/Artemis_Pebdani'
p1019
aS'http://en.wikipedia.org/wiki/Jessica_Wesson'
p1020
aS'http://en.wikipedia.org/wiki/Jurnee_Smollett'
p1021
aS'http://en.wikipedia.org/wiki/Vanessa_Ray'
p1022
aS'http://en.wikipedia.org/wiki/Judy_Garland'
p1023
aS'http://en.wikipedia.org/wiki/Navi_Rawat'
p1024
aS'http://en.wikipedia.org/wiki/Traci_Lords'
p1025
aS'http://en.wikipedia.org/wiki/Movita_Castaneda'
p1026
aS'http://en.wikipedia.org/wiki/Casey_Johnson'
p1027
aS'http://en.wikipedia.org/wiki/Melissa_Fumero'
p1028
aS'http://en.wikipedia.org/wiki/Jadin_Gould'
p1029
aS'http://en.wikipedia.org/wiki/Jumpshot_(musician)'
p1030
aS'http://en.wikipedia.org/wiki/Cyndi_Lauper'
p1031
aS'http://en.wikipedia.org/wiki/Ryan_Starr'
p1032
aS'http://en.wikipedia.org/wiki/Janeane_Garofalo'
p1033
aS'http://en.wikipedia.org/wiki/Kathleen_Wilhoite'
p1034
aS'http://en.wikipedia.org/wiki/Carrie_Preston'
p1035
aS'http://en.wikipedia.org/wiki/Gretchen_Mol'
p1036
aS'http://en.wikipedia.org/wiki/Nicole_Randall_Johnson'
p1037
aS'http://en.wikipedia.org/wiki/Nicole_Kidman'
p1038
aS'http://en.wikipedia.org/wiki/Tichina_Arnold'
p1039
aS'http://en.wikipedia.org/wiki/Maggie_Lawson'
p1040
aS'http://en.wikipedia.org/wiki/Kristin_Hogan'
p1041
aS'http://en.wikipedia.org/wiki/Kim_Darby'
p1042
aS'http://en.wikipedia.org/wiki/Frankie_McCoy'
p1043
aS'http://en.wikipedia.org/wiki/Doris_Kenyon'
p1044
aS'http://en.wikipedia.org/wiki/Brenda_Vaccaro'
p1045
aS'http://en.wikipedia.org/wiki/JC_Chasez'
p1046
aS'http://en.wikipedia.org/wiki/Brooke_Burke'
p1047
aS'http://en.wikipedia.org/wiki/Chip_E.'
p1048
aS'http://en.wikipedia.org/wiki/Kathy_Brier'
p1049
aS'http://en.wikipedia.org/wiki/Heather_Locklear'
p1050
aS'http://en.wikipedia.org/wiki/Jennifer_Hudson'
p1051
aS'http://en.wikipedia.org/wiki/Barbara_Rhoades'
p1052
aS'http://en.wikipedia.org/wiki/Mika_Boorem'
p1053
aS'http://en.wikipedia.org/wiki/Mike_Rizzo'
p1054
aS'http://en.wikipedia.org/wiki/Lucy_Cotton'
p1055
aS'http://en.wikipedia.org/wiki/Gail_Boggs'
p1056
aS'http://en.wikipedia.org/wiki/Susanna_Hoffs'
p1057
aS'http://en.wikipedia.org/wiki/Miley_Cyrus'
p1058
aS'http://en.wikipedia.org/wiki/Bonnie_Pointer'
p1059
aS'http://en.wikipedia.org/wiki/Beth_Fowler'
p1060
aS'http://en.wikipedia.org/wiki/Laura_Bell_Bundy'
p1061
aS'http://en.wikipedia.org/wiki/Stevie_Nicks'
p1062
aS'http://en.wikipedia.org/wiki/Kate_Upton'
p1063
aS'http://en.wikipedia.org/wiki/Laura_Breckenridge'
p1064
aS'http://en.wikipedia.org/wiki/Jessica_Friedman'
p1065
aS'http://en.wikipedia.org/wiki/Julie_Strain'
p1066
aS'http://en.wikipedia.org/wiki/Shamika_Cotton'
p1067
aS'http://en.wikipedia.org/wiki/Kathryn_Sheldon'
p1068
aS'http://en.wikipedia.org/wiki/Hunter_King'
p1069
aS'http://en.wikipedia.org/wiki/India_Scandrick'
p1070
aS'http://en.wikipedia.org/wiki/Garcelle_Beauvais'
p1071
aS'http://en.wikipedia.org/wiki/Ashley_Olsen'
p1072
aS'http://en.wikipedia.org/wiki/Michelle_Federer'
p1073
aS'http://en.wikipedia.org/wiki/Amy_Grabow'
p1074
aS'http://en.wikipedia.org/wiki/Kim_Kardashian'
p1075
aS'http://en.wikipedia.org/wiki/Sandy_B'
p1076
aS'http://en.wikipedia.org/wiki/Susan_Browning'
p1077
aS'http://en.wikipedia.org/wiki/Briana_Evigan'
p1078
aS'http://en.wikipedia.org/wiki/Ava_Fabian'
p1079
aS'http://en.wikipedia.org/wiki/Sara_Adler'
p1080
aS'http://en.wikipedia.org/wiki/Rebecca_Hall'
p1081
aS'http://en.wikipedia.org/wiki/Zoe_Rae'
p1082
aS'http://en.wikipedia.org/wiki/Natalie_Portman'
p1083
aS'http://en.wikipedia.org/wiki/Jordana_Brewster'
p1084
aS'http://en.wikipedia.org/wiki/Elizabeth_Ho'
p1085
aS'http://en.wikipedia.org/wiki/Tessa_Ludwick'
p1086
aS'http://en.wikipedia.org/wiki/Juliet_Landau'
p1087
aS'http://en.wikipedia.org/wiki/Penny_Bae_Bridges'
p1088
aS'http://en.wikipedia.org/wiki/Makenzie_Vega'
p1089
aS'http://en.wikipedia.org/wiki/Alexandra_Breckenridge'
p1090
aS'http://en.wikipedia.org/wiki/Shanna_Moakler'
p1091
aS'http://en.wikipedia.org/wiki/Jessica_Lee_Keller'
p1092
aS'http://en.wikipedia.org/wiki/Mekenna_Melvin'
p1093
aS'http://en.wikipedia.org/wiki/Beth_Broderick'
p1094
aS'http://en.wikipedia.org/wiki/Alicia_Keys'
p1095
aS'http://en.wikipedia.org/wiki/Heather_Graham'
p1096
aS'http://en.wikipedia.org/wiki/Mary_Beth_Hurt'
p1097
aS'http://en.wikipedia.org/wiki/Jammes_Luckett'
p1098
aS'http://en.wikipedia.org/wiki/Rhonda_Fleming'
p1099
aS'http://en.wikipedia.org/wiki/Chrishell_Stause'
p1100
aS'http://en.wikipedia.org/wiki/Ellen_Burstyn'
p1101
aS'http://en.wikipedia.org/wiki/Claudia_Christian'
p1102
aS'http://en.wikipedia.org/wiki/Antonia_Rey'
p1103
aS'http://en.wikipedia.org/wiki/Kimberly_Beck'
p1104
aS'http://en.wikipedia.org/wiki/Cynthia_Daniel'
p1105
aS'http://en.wikipedia.org/wiki/Justin_Timberlake'
p1106
aS'http://en.wikipedia.org/wiki/Rachel_Ames'
p1107
aS'http://en.wikipedia.org/wiki/Larisa_Oleynik'
p1108
aS'http://en.wikipedia.org/wiki/Buff_Cobb'
p1109
aS'http://en.wikipedia.org/wiki/Katrina_Parker'
p1110
aS'http://en.wikipedia.org/wiki/Maura_Tierney'
p1111
aS'http://en.wikipedia.org/wiki/Meta_Golding'
p1112
aS'http://en.wikipedia.org/wiki/Natalie_Zea'
p1113
aS'http://en.wikipedia.org/wiki/Griffin_Drew'
p1114
aS'http://en.wikipedia.org/wiki/Emma_Caulfield'
p1115
aS'http://en.wikipedia.org/wiki/Leland_Palmer_(actress)'
p1116
aS'http://en.wikipedia.org/wiki/Constance_McCashin'
p1117
aS'http://en.wikipedia.org/wiki/Jamie_Anne_Allman'
p1118
aS'http://en.wikipedia.org/wiki/Margaret_Colin'
p1119
aS'http://en.wikipedia.org/wiki/Marguerite_Moreau'
p1120
aS'http://en.wikipedia.org/wiki/P._J._Soles'
p1121
aS'http://en.wikipedia.org/wiki/Harriet_Sansom_Harris'
p1122
aS'http://en.wikipedia.org/wiki/Helen_Martin'
p1123
aS'http://en.wikipedia.org/wiki/Sara_Ramirez'
p1124
aS'http://en.wikipedia.org/wiki/Jennifer_Gan'
p1125
aS'http://en.wikipedia.org/wiki/Flora_Cross'
p1126
aS'http://en.wikipedia.org/wiki/Layla_Sarakalo'
p1127
aS'http://en.wikipedia.org/wiki/Tyra_Banks'
p1128
aS'http://en.wikipedia.org/wiki/Carrie_Brownstein'
p1129
aS'http://en.wikipedia.org/wiki/Amanda_Tepe'
p1130
aS'http://en.wikipedia.org/wiki/Agnes_Bruckner'
p1131
aS'http://en.wikipedia.org/wiki/Dolly_Parton'
p1132
aS'http://en.wikipedia.org/wiki/Adina_Porter'
p1133
aS'http://en.wikipedia.org/wiki/Susan_Misner'
p1134
aS'http://en.wikipedia.org/wiki/Alektra_Blue'
p1135
aS'http://en.wikipedia.org/wiki/Nicole_Gale_Anderson'
p1136
aS'http://en.wikipedia.org/wiki/Danielle_Polanco'
p1137
aS'http://en.wikipedia.org/wiki/Ina_Balin'
p1138
aS'http://en.wikipedia.org/wiki/Janet_Leigh'
p1139
aS'http://en.wikipedia.org/wiki/Ryan_Michelle_Bathe'
p1140
aS'http://en.wikipedia.org/wiki/Susan_Tolsky'
p1141
aS'http://en.wikipedia.org/wiki/Tone_L%C5%8Dc'
p1142
aS'http://en.wikipedia.org/wiki/Vera_Farmiga'
p1143
aS'http://en.wikipedia.org/wiki/Kay_Panabaker'
p1144
aS'http://en.wikipedia.org/wiki/Ruth_Buzzi'
p1145
aS'http://en.wikipedia.org/wiki/Jack%C3%A9e_Harry'
p1146
aS'http://en.wikipedia.org/wiki/Bianca_Kajlich'
p1147
aS'http://en.wikipedia.org/wiki/Carol_Grace'
p1148
aS'http://en.wikipedia.org/wiki/Erin_Hershey_Presley'
p1149
aS'http://en.wikipedia.org/wiki/Liv_Tyler'
p1150
aS'http://en.wikipedia.org/wiki/Da_Brat'
p1151
aS'http://en.wikipedia.org/wiki/Emily_Hahn_(actress)'
p1152
aS'http://en.wikipedia.org/wiki/Martha_Raye'
p1153
aS'http://en.wikipedia.org/wiki/Malaika_(singer)'
p1154
aS'http://en.wikipedia.org/wiki/Joy_Boushel'
p1155
aS'http://en.wikipedia.org/wiki/Rachel_Dratch'
p1156
aS'http://en.wikipedia.org/wiki/Jillian_Kesner-Graver'
p1157
aS'http://en.wikipedia.org/wiki/Betta_St._John'
p1158
aS'http://en.wikipedia.org/wiki/Emily_Rutherfurd'
p1159
aS'http://en.wikipedia.org/wiki/Wendie_Malick'
p1160
aS'http://en.wikipedia.org/wiki/Hope_Davis'
p1161
aS'http://en.wikipedia.org/wiki/Natasha_Melnick'
p1162
aS'http://en.wikipedia.org/wiki/Marpessa_Dawn'
p1163
aS'http://en.wikipedia.org/wiki/Teddy_Pendergrass'
p1164
aS'http://en.wikipedia.org/wiki/Haley_Bennett'
p1165
aS'http://en.wikipedia.org/wiki/Iliza_Shlesinger'
p1166
aS'http://en.wikipedia.org/wiki/Michelle_Wolff'
p1167
aS'http://en.wikipedia.org/wiki/Norah_Jones'
p1168
aS'http://en.wikipedia.org/wiki/Bethany_Joy_Lenz'
p1169
aS'http://en.wikipedia.org/wiki/Carol_Lynley'
p1170
aS'http://en.wikipedia.org/wiki/Vivian_Martin'
p1171
aS'http://en.wikipedia.org/wiki/Taylor_Schilling'
p1172
aS'http://en.wikipedia.org/wiki/India_Ennenga'
p1173
aS'http://en.wikipedia.org/wiki/Sarah_Hyland'
p1174
aS'http://en.wikipedia.org/wiki/Aya_Cash'
p1175
aS'http://en.wikipedia.org/wiki/Mary_Kay_Adams'
p1176
aS'http://en.wikipedia.org/wiki/Marj_Dusay'
p1177
aS'http://en.wikipedia.org/wiki/Nicki_Minaj'
p1178
aS'http://en.wikipedia.org/wiki/Judy_Torres'
p1179
aS'http://en.wikipedia.org/wiki/Q%27orianka_Kilcher'
p1180
aS'http://en.wikipedia.org/wiki/Beverly_D%27Angelo'
p1181
aS'http://en.wikipedia.org/wiki/Ren%C3%A9e_Jones'
p1182
aS'http://en.wikipedia.org/wiki/Peggy_Miley'
p1183
aS'http://en.wikipedia.org/wiki/Elizabeth_Harrower_(actress)'
p1184
aS'http://en.wikipedia.org/wiki/Sally_Struthers'
p1185
aS'http://en.wikipedia.org/wiki/Dorothy_Adams'
p1186
aS'http://en.wikipedia.org/wiki/Edie_McClurg'
p1187
aS'http://en.wikipedia.org/wiki/Zo%C3%AB_Wanamaker'
p1188
aS'http://en.wikipedia.org/wiki/Sheleen_Thomas'
p1189
aS'http://en.wikipedia.org/wiki/Faye_Adell'
p1190
aS'http://en.wikipedia.org/wiki/Elizabeth_Parrish'
p1191
aS'http://en.wikipedia.org/wiki/Apollonia_Kotero'
p1192
aS'http://en.wikipedia.org/wiki/Bonnie_MacBird'
p1193
aS'http://en.wikipedia.org/wiki/June_Squibb'
p1194
aS'http://en.wikipedia.org/wiki/Laurene_Landon'
p1195
aS'http://en.wikipedia.org/wiki/Janet_Beecher'
p1196
aS'http://en.wikipedia.org/wiki/Priscilla_Presley'
p1197
aS'http://en.wikipedia.org/wiki/Amanda_Balon'
p1198
aS'http://en.wikipedia.org/wiki/Swoosie_Kurtz'
p1199
aS'http://en.wikipedia.org/wiki/Anne_Judson-Yager'
p1200
aS'http://en.wikipedia.org/wiki/Beth_Grant'
p1201
aS'http://en.wikipedia.org/wiki/Dakota_Johnson'
p1202
aS'http://en.wikipedia.org/wiki/Adriane_Lenox'
p1203
aS'http://en.wikipedia.org/wiki/Brittany_Curran'
p1204
aS'http://en.wikipedia.org/wiki/Norma_Shearer'
p1205
aS'http://en.wikipedia.org/wiki/Gloria_Holden'
p1206
aS'http://en.wikipedia.org/wiki/Melissa_Rauch'
p1207
aS'http://en.wikipedia.org/wiki/Kathryn_Fiore'
p1208
aS'http://en.wikipedia.org/wiki/Jana_Kramer'
p1209
aS'http://en.wikipedia.org/wiki/Nicole_Steinwedell'
p1210
aS'http://en.wikipedia.org/wiki/Rowan_Blanchard'
p1211
aS'http://en.wikipedia.org/wiki/Afton_Williamson'
p1212
aS'http://en.wikipedia.org/wiki/Myra_Turley'
p1213
aS'http://en.wikipedia.org/wiki/Ali_Cobrin'
p1214
aS'http://en.wikipedia.org/wiki/Linda_Hopper'
p1215
aS'http://en.wikipedia.org/wiki/Diane_Lane'
p1216
aS'http://en.wikipedia.org/wiki/Doris_Pawn'
p1217
aS'http://en.wikipedia.org/wiki/Nocera_(singer)'
p1218
aS'http://en.wikipedia.org/wiki/Mollie_McConnell'
p1219
aS'http://en.wikipedia.org/wiki/Marlo_Thomas'
p1220
aS'http://en.wikipedia.org/wiki/Jane_Hamilton_(actress)'
p1221
aS'http://en.wikipedia.org/wiki/Leighton_Meester'
p1222
aS'http://en.wikipedia.org/wiki/Lisa_Foiles'
p1223
aS'http://en.wikipedia.org/wiki/Amy_Morton'
p1224
aS'http://en.wikipedia.org/wiki/Joely_Fisher'
p1225
aS'http://en.wikipedia.org/wiki/Majandra_Delfino'
p1226
aS'http://en.wikipedia.org/wiki/Julie_Adams'
p1227
aS'http://en.wikipedia.org/wiki/Tramaine_Hawkins'
p1228
aS'http://en.wikipedia.org/wiki/Taylour_Paige'
p1229
aS'http://en.wikipedia.org/wiki/Amber_Rose'
p1230
aS'http://en.wikipedia.org/wiki/Christina_Applegate'
p1231
aS'http://en.wikipedia.org/wiki/Joan_Crawford'
p1232
aS'http://en.wikipedia.org/wiki/Sandy_Fox'
p1233
aS'http://en.wikipedia.org/wiki/Cozi_Zuehlsdorff'
p1234
aS'http://en.wikipedia.org/wiki/Patty_Duke'
p1235
aS'http://en.wikipedia.org/wiki/Millie_Perkins'
p1236
aS'http://en.wikipedia.org/wiki/Lea_DeLaria'
p1237
aS'http://en.wikipedia.org/wiki/Ashley_Laurence'
p1238
aS'http://en.wikipedia.org/wiki/Caitlin_Carmichael'
p1239
aS'http://en.wikipedia.org/wiki/Busy_Philipps'
p1240
aS'http://en.wikipedia.org/wiki/Keiko_Agena'
p1241
aS'http://en.wikipedia.org/wiki/Rebecca_Creskoff'
p1242
aS'http://en.wikipedia.org/wiki/Julie_St._Claire'
p1243
aS'http://en.wikipedia.org/wiki/Odette_Annable'
p1244
aS'http://en.wikipedia.org/wiki/Maddy_Curley'
p1245
aS'http://en.wikipedia.org/wiki/Kathleen_Key'
p1246
aS'http://en.wikipedia.org/wiki/Victoria_Principal'
p1247
aS'http://en.wikipedia.org/wiki/Miriam_Shor'
p1248
aS'http://en.wikipedia.org/wiki/Jamie_Brewer'
p1249
aS'http://en.wikipedia.org/wiki/Sam_Doumit'
p1250
aS'http://en.wikipedia.org/wiki/Tina_Turner'
p1251
aS'http://en.wikipedia.org/wiki/Mia_Schaikewitz'
p1252
aS'http://en.wikipedia.org/wiki/Alley_Mills'
p1253
aS'http://en.wikipedia.org/wiki/Tricia_O%27Kelley'
p1254
aS'http://en.wikipedia.org/wiki/Mollie_Milligan'
p1255
aS'http://en.wikipedia.org/wiki/Cara_DeLizia'
p1256
aS'http://en.wikipedia.org/wiki/Joie_Lee'
p1257
aS'http://en.wikipedia.org/wiki/Roberta_Flack'
p1258
aS'http://en.wikipedia.org/wiki/Chase_Masterson'
p1259
aS'http://en.wikipedia.org/wiki/Lil%27_Kim'
p1260
aS'http://en.wikipedia.org/wiki/Ta-Tanisha'
p1261
aS'http://en.wikipedia.org/wiki/Kathleen_Bryson'
p1262
aS'http://en.wikipedia.org/wiki/Bonnie_McKee'
p1263
aS'http://en.wikipedia.org/wiki/Karla_Cheatham_Mosley'
p1264
aS'http://en.wikipedia.org/wiki/Marlene_Dietrich'
p1265
aS'http://en.wikipedia.org/wiki/Clare_Grant'
p1266
aS'http://en.wikipedia.org/wiki/Caitlin_Mowrey'
p1267
aS'http://en.wikipedia.org/wiki/Corina_(singer)'
p1268
aS'http://en.wikipedia.org/wiki/Jeanmarie_Simpson'
p1269
aS'http://en.wikipedia.org/wiki/Lynne_Marta'
p1270
aS'http://en.wikipedia.org/wiki/Ciara_Bravo'
p1271
aS'http://en.wikipedia.org/wiki/Meg_Tilly'
p1272
aS'http://en.wikipedia.org/wiki/Liza_Fox'
p1273
aS'http://en.wikipedia.org/wiki/Jayma_Mays'
p1274
aS'http://en.wikipedia.org/wiki/Irene_Worth'
p1275
aS'http://en.wikipedia.org/wiki/Connie_Champagne'
p1276
aS'http://en.wikipedia.org/wiki/Amzie_Strickland'
p1277
aS'http://en.wikipedia.org/wiki/Emily_Kuroda'
p1278
aS'http://en.wikipedia.org/wiki/RL_Grime'
p1279
aS'http://en.wikipedia.org/wiki/Estelle_Harris'
p1280
aS'http://en.wikipedia.org/wiki/Anna_Maria_Perez_de_Tagl%C3%A9'
p1281
aS'http://en.wikipedia.org/wiki/Steven_Greenberg_(musician)'
p1282
aS'http://en.wikipedia.org/wiki/Dana_Wheeler-Nicholson'
p1283
aS'http://en.wikipedia.org/wiki/Margaret_Markov'
p1284
aS'http://en.wikipedia.org/wiki/Andrea_Gabriel'
p1285
aS'http://en.wikipedia.org/wiki/Nora_Kirkpatrick'
p1286
aS'http://en.wikipedia.org/wiki/Camilla_Belle'
p1287
aS'http://en.wikipedia.org/wiki/Tawny_Moyer'
p1288
aS'http://en.wikipedia.org/wiki/Jean_Hale'
p1289
aS'http://en.wikipedia.org/wiki/Pat_Musick'
p1290
aS'http://en.wikipedia.org/wiki/Hector_Fonseca'
p1291
aS'http://en.wikipedia.org/wiki/Idina_Menzel'
p1292
aS'http://en.wikipedia.org/wiki/Daphne_Zuniga'
p1293
aS'http://en.wikipedia.org/wiki/Brittany_Murphy'
p1294
aS'http://en.wikipedia.org/wiki/Heather_Morris'
p1295
aS'http://en.wikipedia.org/wiki/Lorraine_Huling_Maynard'
p1296
aS'http://en.wikipedia.org/wiki/Francesca_Eastwood'
p1297
aS'http://en.wikipedia.org/wiki/Femi_Emiola'
p1298
aS'http://en.wikipedia.org/wiki/Gillette_(singer)'
p1299
aS'http://en.wikipedia.org/wiki/Irene_Franklin'
p1300
aS'http://en.wikipedia.org/wiki/Lillian_Herlein'
p1301
a.